
 Start         Length     Name                   Class
 0001:00401000 00016BD8H .text                   CODE
 0002:00418000 00000320H .itext                  ICODE
 0003:00419000 0000034CH .data                   DATA
 0004:0041A000 00000090H .bss                    BSS
 0005:00000000 00000000H .tls                    TLS


Detailed map of segments

 0001:00000000 0000024E C=CODE     S=.text    G=(none)   M=System   ACBP=A9
 0001:00000250 000001C3 C=CODE     S=.text    G=(none)   M=SysInit  ACBP=A9
 0001:00000414 0000000E C=CODE     S=.text    G=(none)   M=Dialogs  ACBP=A9
 0001:00000424 00000006 C=CODE     S=.text    G=(none)   M=ActiveX  ACBP=A9
 0001:0000042C 000000D0 C=CODE     S=.text    G=(none)   M=Windows  ACBP=A9
 0001:000004FC 0000003E C=CODE     S=.text    G=(none)   M=StdCtrls ACBP=A9
 0001:0000053C 00000006 C=CODE     S=.text    G=(none)   M=ActnList ACBP=A9
 0001:00000544 00000016 C=CODE     S=.text    G=(none)   M=Contnrs  ACBP=A9
 0001:0000055C 0000021E C=CODE     S=.text    G=(none)   M=Classes  ACBP=A9
 0001:0000077C 0000003E C=CODE     S=.text    G=(none)   M=TypInfo  ACBP=A9
 0001:000007BC 000000AE C=CODE     S=.text    G=(none)   M=SysUtils ACBP=A9
 0001:0000086C 0000001E C=CODE     S=.text    G=(none)   M=Variants ACBP=A9
 0001:0000088C 00000006 C=CODE     S=.text    G=(none)   M=VarUtils ACBP=A9
 0001:00000894 0000002E C=CODE     S=.text    G=(none)   M=ImgList  ACBP=A9
 0001:000008C4 0000006E C=CODE     S=.text    G=(none)   M=Graphics ACBP=A9
 0001:00000934 00000006 C=CODE     S=.text    G=(none)   M=Registry ACBP=A9
 0001:0000093C 00000006 C=CODE     S=.text    G=(none)   M=IniFiles ACBP=A9
 0001:00000944 00000176 C=CODE     S=.text    G=(none)   M=Forms    ACBP=A9
 0001:00000ABC 00000006 C=CODE     S=.text    G=(none)   M=HelpIntfs ACBP=A9
 0001:00000AC4 00000006 C=CODE     S=.text    G=(none)   M=MultiMon ACBP=A9
 0001:00000ACC 0000027E C=CODE     S=.text    G=(none)   M=Controls ACBP=A9
 0001:00000D4C 00000006 C=CODE     S=.text    G=(none)   M=Menus    ACBP=A9
 0001:00000D54 00000006 C=CODE     S=.text    G=(none)   M=UxTheme  ACBP=A9
 0001:00000D5C 00000006 C=CODE     S=.text    G=(none)   M=Themes   ACBP=A9
 0001:00000D64 00000006 C=CODE     S=.text    G=(none)   M=Printers ACBP=A9
 0001:00000D6C 00000056 C=CODE     S=.text    G=(none)   M=ExtCtrls ACBP=A9
 0001:00000DC4 00000006 C=CODE     S=.text    G=(none)   M=GraphUtil ACBP=A9
 0001:00000DCC 0000000E C=CODE     S=.text    G=(none)   M=StrUtils ACBP=A9
 0001:00000DDC 00000006 C=CODE     S=.text    G=(none)   M=Clipbrd  ACBP=A9
 0001:00000DE4 00000006 C=CODE     S=.text    G=(none)   M=FlatSB   ACBP=A9
 0001:00000DEC 0000004A C=CODE     S=.text    G=(none)   M=VA508AccessibilityConst ACBP=A9
 0001:00000E38 00000066 C=CODE     S=.text    G=(none)   M=VAUtils  ACBP=A9
 0001:00000EA0 0000001E C=CODE     S=.text    G=(none)   M=ComObj   ACBP=A9
 0001:00000EC0 0000002E C=CODE     S=.text    G=(none)   M=VAClasses ACBP=A9
 0001:00000EF0 00000066 C=CODE     S=.text    G=(none)   M=ComCtrls ACBP=A9
 0001:00000F58 00000006 C=CODE     S=.text    G=(none)   M=ExtActns ACBP=A9
 0001:00000F60 00000006 C=CODE     S=.text    G=(none)   M=ExtDlgs  ACBP=A9
 0001:00000F68 00000006 C=CODE     S=.text    G=(none)   M=Buttons  ACBP=A9
 0001:00000F70 00000006 C=CODE     S=.text    G=(none)   M=Mapi     ACBP=A9
 0001:00000F78 0000002E C=CODE     S=.text    G=(none)   M=MSAAConstants ACBP=A9
 0001:00000FA8 00000006 C=CODE     S=.text    G=(none)   M=OleServer ACBP=A9
 0001:00000FB0 000002EA C=CODE     S=.text    G=(none)   M=oleacc2  ACBP=A9
 0001:0000129C 00001887 C=CODE     S=.text    G=(none)   M=VA508MSAASupport ACBP=A9
 0001:00002B24 0000000E C=CODE     S=.text    G=(none)   M=DateUtils ACBP=A9
 0001:00002B34 0000186D C=CODE     S=.text    G=(none)   M=VA508AccessibilityRouter ACBP=A9
 0001:000043A4 00000890 C=CODE     S=.text    G=(none)   M=VA508ScreenReaderDLLLinker ACBP=A9
 0001:00004C34 00000006 C=CODE     S=.text    G=(none)   M=DB       ACBP=A9
 0001:00004C3C 00000006 C=CODE     S=.text    G=(none)   M=WideStrings ACBP=A9
 0001:00004C44 00000006 C=CODE     S=.text    G=(none)   M=FMTBcd   ACBP=A9
 0001:00004C4C 00000006 C=CODE     S=.text    G=(none)   M=SqlTimSt ACBP=A9
 0001:00004C54 00000006 C=CODE     S=.text    G=(none)   M=DBCtrls  ACBP=A9
 0001:00004C5C 00000006 C=CODE     S=.text    G=(none)   M=DBPWDlg  ACBP=A9
 0001:00004C64 00000006 C=CODE     S=.text    G=(none)   M=DBLogDlg ACBP=A9
 0001:00004C6C 00000016 C=CODE     S=.text    G=(none)   M=CheckLst ACBP=A9
 0001:00004C84 00001196 C=CODE     S=.text    G=(none)   M=VA508DelphiCompatibility ACBP=A9
 0001:00005E1C 00000006 C=CODE     S=.text    G=(none)   M=HRParserPas ACBP=A9
 0001:00005E24 00000016 C=CODE     S=.text    G=(none)   M=HRParser ACBP=A9
 0001:00005E3C 000014F6 C=CODE     S=.text    G=(none)   M=VA508ImageListLabeler ACBP=A9
 0001:00007334 000019B6 C=CODE     S=.text    G=(none)   M=VA508Classes ACBP=A9
 0001:00008CEC 00006E3E C=CODE     S=.text    G=(none)   M=VA508AccessibilityManager ACBP=A9
 0001:0000FB2C 00000026 C=CODE     S=.text    G=(none)   M=ToolsAPI ACBP=A9
 0001:0000FB54 00000006 C=CODE     S=.text    G=(none)   M=XMLIntf  ACBP=A9
 0001:0000FB5C 00000006 C=CODE     S=.text    G=(none)   M=xmldom   ACBP=A9
 0001:0000FB64 00000006 C=CODE     S=.text    G=(none)   M=msxmldom ACBP=A9
 0001:0000FB6C 0000000E C=CODE     S=.text    G=(none)   M=DesignIntf ACBP=A9
 0001:0000FB7C 00000006 C=CODE     S=.text    G=(none)   M=DockForm ACBP=A9
 0001:0000FB84 00000006 C=CODE     S=.text    G=(none)   M=IDEMessages ACBP=A9
 0001:0000FB8C 00000006 C=CODE     S=.text    G=(none)   M=DeskForm ACBP=A9
 0001:0000FB94 00000006 C=CODE     S=.text    G=(none)   M=BaseDock ACBP=A9
 0001:0000FB9C 00000006 C=CODE     S=.text    G=(none)   M=PercentageDockTree ACBP=A9
 0001:0000FBA4 00000006 C=CODE     S=.text    G=(none)   M=CaptionedDockTree ACBP=A9
 0001:0000FBAC 00000006 C=CODE     S=.text    G=(none)   M=DockTabSet ACBP=A9
 0001:0000FBB4 00000006 C=CODE     S=.text    G=(none)   M=Tabs     ACBP=A9
 0001:0000FBBC 00000006 C=CODE     S=.text    G=(none)   M=DeskUtil ACBP=A9
 0001:0000FBC4 00000006 C=CODE     S=.text    G=(none)   M=ActnMan  ACBP=A9
 0001:0000FBCC 00000006 C=CODE     S=.text    G=(none)   M=ActnMenus ACBP=A9
 0001:0000FBD4 00000006 C=CODE     S=.text    G=(none)   M=XPStyleActnCtrls ACBP=A9
 0001:0000FBDC 00000176 C=CODE     S=.text    G=(none)   M=DesignEditors ACBP=A9
 0001:0000FD54 00000006 C=CODE     S=.text    G=(none)   M=Proxies  ACBP=A9
 0001:0000FD5C 00000056 C=CODE     S=.text    G=(none)   M=ColnEdit ACBP=A9
 0001:0000FDB4 0000000E C=CODE     S=.text    G=(none)   M=ToolWnds ACBP=A9
 0001:0000FDC4 00000046 C=CODE     S=.text    G=(none)   M=DesignWindows ACBP=A9
 0001:0000FE0C 00000006 C=CODE     S=.text    G=(none)   M=ComponentDesigner ACBP=A9
 0001:0000FE14 00000006 C=CODE     S=.text    G=(none)   M=AxCtrls  ACBP=A9
 0001:0000FE1C 00000006 C=CODE     S=.text    G=(none)   M=StFilSys ACBP=A9
 0001:0000FE24 00000006 C=CODE     S=.text    G=(none)   M=TopLevels ACBP=A9
 0001:0000FE2C 00000006 C=CODE     S=.text    G=(none)   M=TreeIntf ACBP=A9
 0001:0000FE34 00000006 C=CODE     S=.text    G=(none)   M=VCLEditors ACBP=A9
 0001:0000FE3C 00001A96 C=CODE     S=.text    G=(none)   M=VA508AccessibilityPE ACBP=A9
 0001:000118D4 00000701 C=CODE     S=.text    G=(none)   M=VA508AccessibilityCompileInfo ACBP=A9
 0001:00011FD8 000034C3 C=CODE     S=.text    G=(none)   M=VA508AccessibilityCompiler ACBP=A9
 0001:0001549C 00001212 C=CODE     S=.text    G=(none)   M=VA508ImageListLabelerPE ACBP=A9
 0001:000166B0 00000527 C=CODE     S=.text    G=(none)   M=.VA508Access2006 ACBP=A9
 0002:00000000 00000006 C=ICODE    S=.itext   G=(none)   M=System   ACBP=A9
 0002:00000008 00000006 C=ICODE    S=.itext   G=(none)   M=Dialogs  ACBP=A9
 0002:00000010 00000011 C=ICODE    S=.itext   G=(none)   M=Windows  ACBP=A9
 0002:00000024 00000006 C=ICODE    S=.itext   G=(none)   M=ActnList ACBP=A9
 0002:0000002C 00000006 C=ICODE    S=.itext   G=(none)   M=Classes  ACBP=A9
 0002:00000034 00000006 C=ICODE    S=.itext   G=(none)   M=TypInfo  ACBP=A9
 0002:0000003C 00000006 C=ICODE    S=.itext   G=(none)   M=SysUtils ACBP=A9
 0002:00000044 00000006 C=ICODE    S=.itext   G=(none)   M=Variants ACBP=A9
 0002:0000004C 00000006 C=ICODE    S=.itext   G=(none)   M=VarUtils ACBP=A9
 0002:00000054 00000006 C=ICODE    S=.itext   G=(none)   M=Graphics ACBP=A9
 0002:0000005C 00000006 C=ICODE    S=.itext   G=(none)   M=Registry ACBP=A9
 0002:00000064 00000006 C=ICODE    S=.itext   G=(none)   M=IniFiles ACBP=A9
 0002:0000006C 00000006 C=ICODE    S=.itext   G=(none)   M=Forms    ACBP=A9
 0002:00000074 00000006 C=ICODE    S=.itext   G=(none)   M=HelpIntfs ACBP=A9
 0002:0000007C 00000006 C=ICODE    S=.itext   G=(none)   M=MultiMon ACBP=A9
 0002:00000084 00000006 C=ICODE    S=.itext   G=(none)   M=Controls ACBP=A9
 0002:0000008C 00000006 C=ICODE    S=.itext   G=(none)   M=Menus    ACBP=A9
 0002:00000094 00000006 C=ICODE    S=.itext   G=(none)   M=UxTheme  ACBP=A9
 0002:0000009C 00000006 C=ICODE    S=.itext   G=(none)   M=Themes   ACBP=A9
 0002:000000A4 00000006 C=ICODE    S=.itext   G=(none)   M=Printers ACBP=A9
 0002:000000AC 00000006 C=ICODE    S=.itext   G=(none)   M=ExtCtrls ACBP=A9
 0002:000000B4 00000006 C=ICODE    S=.itext   G=(none)   M=GraphUtil ACBP=A9
 0002:000000BC 00000006 C=ICODE    S=.itext   G=(none)   M=Clipbrd  ACBP=A9
 0002:000000C4 00000006 C=ICODE    S=.itext   G=(none)   M=FlatSB   ACBP=A9
 0002:000000CC 00000008 C=ICODE    S=.itext   G=(none)   M=VA508AccessibilityConst ACBP=A9
 0002:000000D4 00000006 C=ICODE    S=.itext   G=(none)   M=VAUtils  ACBP=A9
 0002:000000DC 00000006 C=ICODE    S=.itext   G=(none)   M=ComObj   ACBP=A9
 0002:000000E4 00000006 C=ICODE    S=.itext   G=(none)   M=ComCtrls ACBP=A9
 0002:000000EC 00000006 C=ICODE    S=.itext   G=(none)   M=ExtActns ACBP=A9
 0002:000000F4 00000006 C=ICODE    S=.itext   G=(none)   M=ExtDlgs  ACBP=A9
 0002:000000FC 00000006 C=ICODE    S=.itext   G=(none)   M=Buttons  ACBP=A9
 0002:00000104 00000006 C=ICODE    S=.itext   G=(none)   M=Mapi     ACBP=A9
 0002:0000010C 00000008 C=ICODE    S=.itext   G=(none)   M=MSAAConstants ACBP=A9
 0002:00000114 00000006 C=ICODE    S=.itext   G=(none)   M=OleServer ACBP=A9
 0002:0000011C 00000008 C=ICODE    S=.itext   G=(none)   M=oleacc2  ACBP=A9
 0002:00000124 00000014 C=ICODE    S=.itext   G=(none)   M=VA508MSAASupport ACBP=A9
 0002:00000138 00000021 C=ICODE    S=.itext   G=(none)   M=VA508AccessibilityRouter ACBP=A9
 0002:0000015C 00000008 C=ICODE    S=.itext   G=(none)   M=VA508ScreenReaderDLLLinker ACBP=A9
 0002:00000164 00000006 C=ICODE    S=.itext   G=(none)   M=DB       ACBP=A9
 0002:0000016C 00000006 C=ICODE    S=.itext   G=(none)   M=WideStrings ACBP=A9
 0002:00000174 00000006 C=ICODE    S=.itext   G=(none)   M=FMTBcd   ACBP=A9
 0002:0000017C 00000006 C=ICODE    S=.itext   G=(none)   M=SqlTimSt ACBP=A9
 0002:00000184 00000006 C=ICODE    S=.itext   G=(none)   M=DBCtrls  ACBP=A9
 0002:0000018C 00000006 C=ICODE    S=.itext   G=(none)   M=DBPWDlg  ACBP=A9
 0002:00000194 00000006 C=ICODE    S=.itext   G=(none)   M=DBLogDlg ACBP=A9
 0002:0000019C 00000006 C=ICODE    S=.itext   G=(none)   M=CheckLst ACBP=A9
 0002:000001A4 0000000F C=ICODE    S=.itext   G=(none)   M=VA508DelphiCompatibility ACBP=A9
 0002:000001B4 00000008 C=ICODE    S=.itext   G=(none)   M=VA508ImageListLabeler ACBP=A9
 0002:000001BC 00000008 C=ICODE    S=.itext   G=(none)   M=VA508Classes ACBP=A9
 0002:000001C4 00000014 C=ICODE    S=.itext   G=(none)   M=VA508AccessibilityManager ACBP=A9
 0002:000001D8 00000006 C=ICODE    S=.itext   G=(none)   M=ToolsAPI ACBP=A9
 0002:000001E0 00000006 C=ICODE    S=.itext   G=(none)   M=XMLIntf  ACBP=A9
 0002:000001E8 00000006 C=ICODE    S=.itext   G=(none)   M=xmldom   ACBP=A9
 0002:000001F0 00000006 C=ICODE    S=.itext   G=(none)   M=msxmldom ACBP=A9
 0002:000001F8 00000006 C=ICODE    S=.itext   G=(none)   M=DockForm ACBP=A9
 0002:00000200 00000006 C=ICODE    S=.itext   G=(none)   M=IDEMessages ACBP=A9
 0002:00000208 00000006 C=ICODE    S=.itext   G=(none)   M=DeskForm ACBP=A9
 0002:00000210 00000006 C=ICODE    S=.itext   G=(none)   M=BaseDock ACBP=A9
 0002:00000218 00000006 C=ICODE    S=.itext   G=(none)   M=PercentageDockTree ACBP=A9
 0002:00000220 00000006 C=ICODE    S=.itext   G=(none)   M=CaptionedDockTree ACBP=A9
 0002:00000228 00000006 C=ICODE    S=.itext   G=(none)   M=DockTabSet ACBP=A9
 0002:00000230 00000006 C=ICODE    S=.itext   G=(none)   M=Tabs     ACBP=A9
 0002:00000238 00000006 C=ICODE    S=.itext   G=(none)   M=DeskUtil ACBP=A9
 0002:00000240 00000006 C=ICODE    S=.itext   G=(none)   M=ActnMan  ACBP=A9
 0002:00000248 00000006 C=ICODE    S=.itext   G=(none)   M=ActnMenus ACBP=A9
 0002:00000250 00000006 C=ICODE    S=.itext   G=(none)   M=XPStyleActnCtrls ACBP=A9
 0002:00000258 00000006 C=ICODE    S=.itext   G=(none)   M=DesignEditors ACBP=A9
 0002:00000260 00000006 C=ICODE    S=.itext   G=(none)   M=Proxies  ACBP=A9
 0002:00000268 00000006 C=ICODE    S=.itext   G=(none)   M=ColnEdit ACBP=A9
 0002:00000270 00000006 C=ICODE    S=.itext   G=(none)   M=ToolWnds ACBP=A9
 0002:00000278 00000006 C=ICODE    S=.itext   G=(none)   M=ComponentDesigner ACBP=A9
 0002:00000280 00000006 C=ICODE    S=.itext   G=(none)   M=AxCtrls  ACBP=A9
 0002:00000288 00000006 C=ICODE    S=.itext   G=(none)   M=StFilSys ACBP=A9
 0002:00000290 00000006 C=ICODE    S=.itext   G=(none)   M=TopLevels ACBP=A9
 0002:00000298 00000006 C=ICODE    S=.itext   G=(none)   M=TreeIntf ACBP=A9
 0002:000002A0 00000006 C=ICODE    S=.itext   G=(none)   M=VCLEditors ACBP=A9
 0002:000002A8 00000008 C=ICODE    S=.itext   G=(none)   M=VA508AccessibilityPE ACBP=A9
 0002:000002B0 0000002F C=ICODE    S=.itext   G=(none)   M=VA508AccessibilityCompileInfo ACBP=A9
 0002:000002E0 0000002F C=ICODE    S=.itext   G=(none)   M=VA508AccessibilityCompiler ACBP=A9
 0002:00000310 00000008 C=ICODE    S=.itext   G=(none)   M=VA508ImageListLabelerPE ACBP=A9
 0002:00000318 00000005 C=ICODE    S=.itext   G=(none)   M=.VA508Access2006 ACBP=A9
 0003:00000000 00000030 C=DATA     S=.data    G=DGROUP   M=SysInit  ACBP=A9
 0003:00000030 00000180 C=DATA     S=.data    G=DGROUP   M=MSAAConstants ACBP=A9
 0003:000001B0 00000070 C=DATA     S=.data    G=DGROUP   M=oleacc2  ACBP=A9
 0003:00000220 00000018 C=DATA     S=.data    G=DGROUP   M=VA508MSAASupport ACBP=A9
 0003:00000238 00000024 C=DATA     S=.data    G=DGROUP   M=VA508AccessibilityRouter ACBP=A9
 0003:0000025C 00000030 C=DATA     S=.data    G=DGROUP   M=VA508ScreenReaderDLLLinker ACBP=A9
 0003:0000028C 00000061 C=DATA     S=.data    G=DGROUP   M=VA508AccessibilityManager ACBP=A9
 0003:000002F0 00000004 C=DATA     S=.data    G=DGROUP   M=VA508AccessibilityCompileInfo ACBP=A9
 0003:000002F4 00000005 C=DATA     S=.data    G=DGROUP   M=VA508AccessibilityCompiler ACBP=A9
 0004:00000000 00000010 C=BSS      S=.bss     G=DGROUP   M=SysInit  ACBP=A9
 0004:00000010 00000008 C=BSS      S=.bss     G=DGROUP   M=Windows  ACBP=A9
 0004:00000018 00000004 C=BSS      S=.bss     G=DGROUP   M=VA508AccessibilityConst ACBP=A9
 0004:0000001C 00000004 C=BSS      S=.bss     G=DGROUP   M=MSAAConstants ACBP=A9
 0004:00000020 00000004 C=BSS      S=.bss     G=DGROUP   M=oleacc2  ACBP=A9
 0004:00000024 00000018 C=BSS      S=.bss     G=DGROUP   M=VA508MSAASupport ACBP=A9
 0004:0000003C 00000004 C=BSS      S=.bss     G=DGROUP   M=VA508AccessibilityRouter ACBP=A9
 0004:00000040 00000004 C=BSS      S=.bss     G=DGROUP   M=VA508ScreenReaderDLLLinker ACBP=A9
 0004:00000044 00000004 C=BSS      S=.bss     G=DGROUP   M=VA508DelphiCompatibility ACBP=A9
 0004:00000048 00000004 C=BSS      S=.bss     G=DGROUP   M=VA508ImageListLabeler ACBP=A9
 0004:0000004C 00000004 C=BSS      S=.bss     G=DGROUP   M=VA508Classes ACBP=A9
 0004:00000050 0000000C C=BSS      S=.bss     G=DGROUP   M=VA508AccessibilityManager ACBP=A9
 0004:0000005C 00000004 C=BSS      S=.bss     G=DGROUP   M=VA508AccessibilityPE ACBP=A9
 0004:00000060 00000020 C=BSS      S=.bss     G=DGROUP   M=VA508AccessibilityCompileInfo ACBP=A9
 0004:00000080 0000000C C=BSS      S=.bss     G=DGROUP   M=VA508AccessibilityCompiler ACBP=A9
 0004:0000008C 00000004 C=BSS      S=.bss     G=DGROUP   M=VA508ImageListLabelerPE ACBP=A9


  Address             Publics by Name

 0002:00000318       .VA508Access2006..VA508Access2006
 0001:00016BB8       .VA508Access2006.@GetPackageInfoTable
 0001:00016BC0       .VA508Access2006.@PackageLoad
 0001:00016BCC       .VA508Access2006.@PackageUnload
 0004:0000001C       MSAAConstants..1
 0001:00000F78       MSAAConstants.Finalization
 0002:0000010C       MSAAConstants.MSAAConstants
 0003:00000050       MSAAConstants.PROPID_ACC_DESCRIPTION
 0003:00000190       MSAAConstants.PROPID_ACC_DESCRIPTIONMAP
 0003:000001A0       MSAAConstants.PROPID_ACC_DODEFAULTACTION
 0003:000000B0       MSAAConstants.PROPID_ACC_FOCUS
 0003:00000080       MSAAConstants.PROPID_ACC_HELP
 0003:000000A0       MSAAConstants.PROPID_ACC_HELPTOPIC
 0003:00000090       MSAAConstants.PROPID_ACC_KEYBOARDSHORTCUT
 0003:00000030       MSAAConstants.PROPID_ACC_NAME
 0003:000000F0       MSAAConstants.PROPID_ACC_NAV_DOWN
 0003:00000140       MSAAConstants.PROPID_ACC_NAV_FIRSTCHILD
 0003:00000150       MSAAConstants.PROPID_ACC_NAV_LASTCHILD
 0003:00000100       MSAAConstants.PROPID_ACC_NAV_LEFT
 0003:00000130       MSAAConstants.PROPID_ACC_NAV_NEXT
 0003:00000120       MSAAConstants.PROPID_ACC_NAV_PREV
 0003:00000110       MSAAConstants.PROPID_ACC_NAV_RIGHT
 0003:000000E0       MSAAConstants.PROPID_ACC_NAV_UP
 0003:000000D0       MSAAConstants.PROPID_ACC_PARENT
 0003:00000060       MSAAConstants.PROPID_ACC_ROLE
 0003:00000160       MSAAConstants.PROPID_ACC_ROLEMAP
 0003:000000C0       MSAAConstants.PROPID_ACC_SELECTION
 0003:00000070       MSAAConstants.PROPID_ACC_STATE
 0003:00000180       MSAAConstants.PROPID_ACC_STATEMAP
 0003:00000040       MSAAConstants.PROPID_ACC_VALUE
 0003:00000170       MSAAConstants.PROPID_ACC_VALUEMAP
 0004:00000020       oleacc2..2
 0001:000010FC       oleacc2..CoCAccPropServices
 0003:00000210       oleacc2.CLASS_CAccPropServices
 0001:00001188       oleacc2.CoCAccPropServices.Create
 0001:000011EC       oleacc2.CoCAccPropServices.CreateRemote
 0001:0000126C       oleacc2.Finalization
 0003:000001C0       oleacc2.IID_IAccessible
 0003:000001D0       oleacc2.IID_IAccessibleHandler
 0003:000001E0       oleacc2.IID_IAccIdentity
 0003:000001F0       oleacc2.IID_IAccPropServer
 0003:00000200       oleacc2.IID_IAccPropServices
 0003:000001B0       oleacc2.LIBID_Accessibility
 0002:0000011C       oleacc2.oleacc2
 0001:00000398       SysInit.@InitPkg
 0001:000003FC       SysInit.@PackageLoad
 0001:00000408       SysInit.@PackageUnload
 0001:00000288       SysInit.AllocTlsBuffer
 0004:00000008       SysInit.DllProc
 0001:00000344       SysInit.ExitProcessTLS
 0001:0000030C       SysInit.ExitThreadTLS
 0001:00000250       SysInit.FreeLibrary
 0001:00000294       SysInit.GetTlsSize
 0004:00000004       SysInit.HInstance
 0001:00000368       SysInit.InitializeModule
 0001:000002E0       SysInit.InitProcessTLS
 0001:0000029C       SysInit.InitThreadTLS
 0001:00000258       SysInit.LocalAlloc
 0001:00000260       SysInit.LocalFree
 0003:00000008       SysInit.Module
 0004:00000000       SysInit.ModuleIsLib
 0004:00000001       SysInit.ModuleIsPackage
 0003:00000004       SysInit.PtrToNil
 0001:00000268       SysInit.TlsAlloc
 0004:0000000C       SysInit.tlsBuffer
 0001:00000270       SysInit.TlsFree
 0001:00000278       SysInit.TlsGetValue
 0003:00000000       SysInit.TlsIndex
 0005:00000000       SysInit.TlsLast
 0003:00000020       SysInit.TlsProc
 0001:00000280       SysInit.TlsSetValue
 0001:00000374       SysInit.UninitializeModule
 0004:00000060       VA508AccessibilityCompileInfo..2
 0001:000118D4       VA508AccessibilityCompileInfo..TfrmProgress
 0001:00011F88       VA508AccessibilityCompileInfo.Finalization
 0003:000002F0       VA508AccessibilityCompileInfo.frmProgress
 0001:00011C44       VA508AccessibilityCompileInfo.Hookup
 0001:00011CE4       VA508AccessibilityCompileInfo.StartMonitor
 0001:00011D6C       VA508AccessibilityCompileInfo.StopMonitor
 0001:00011F14       VA508AccessibilityCompileInfo.TfrmProgress.btnReleaseClick
 0001:00011F44       VA508AccessibilityCompileInfo.TfrmProgress.FormCreate
 0004:00000070       VA508AccessibilityCompileInfo.uLastUpdate
 0001:00011D80       VA508AccessibilityCompileInfo.Update508Monitor
 0004:00000064       VA508AccessibilityCompileInfo.uProjectText
 0004:00000078       VA508AccessibilityCompileInfo.uStartTime
 0004:00000068       VA508AccessibilityCompileInfo.uStopProc
 0002:000002B0       VA508AccessibilityCompileInfo.VA508AccessibilityCompileInfo
 0004:00000080       VA508AccessibilityCompiler..2
 0001:000120F0       VA508AccessibilityCompiler..TVA508Compiler
 0001:00012EA4       VA508AccessibilityCompiler.Add2Cache
 0001:00013FC0       VA508AccessibilityCompiler.AttemptAutoFix
 0001:00013214       VA508AccessibilityCompiler.ClearWarningList
 0001:00013F38       VA508AccessibilityCompiler.CloseEditor
 0001:000149FC       VA508AccessibilityCompiler.CloseModules
 0001:0001502C       VA508AccessibilityCompiler.CreateResources
 0001:0001522C       VA508AccessibilityCompiler.DestroyResources
 0001:00013B50       VA508AccessibilityCompiler.DFMSuccessfullyLoaded
 0001:000122D0       VA508AccessibilityCompiler.DLLUnload
 0001:000123E4       VA508AccessibilityCompiler.Do508Scan
 0001:000139C8       VA508AccessibilityCompiler.FileLoaded
 0001:0001545C       VA508AccessibilityCompiler.Finalization
 0001:00013168       VA508AccessibilityCompiler.GetComponentName
 0001:00012F18       VA508AccessibilityCompiler.GetDFMFileName
 0001:000132F0       VA508AccessibilityCompiler.GetManagerInfo
 0001:0001231C       VA508AccessibilityCompiler.GetPluralStr
 0001:00013288       VA508AccessibilityCompiler.GetWarningList
 0001:00014500       VA508AccessibilityCompiler.HandleInheritenceProblems
 0001:000122E8       VA508AccessibilityCompiler.HaveMessageServices
 0001:00012E00       VA508AccessibilityCompiler.IncCacheIndexes
 0001:00015310       VA508AccessibilityCompiler.Init
 0001:00013754       VA508AccessibilityCompiler.InitCache
 0001:000144B0       VA508AccessibilityCompiler.IsFileReadOnly
 0001:00014BA0       VA508AccessibilityCompiler.LoadCacheFile
 0001:00012838       VA508AccessibilityCompiler.MessageOK
 0004:00000088       VA508AccessibilityCompiler.MessageService
 0003:000002F4       VA508AccessibilityCompiler.NotifierIndex
 0003:000002F8       VA508AccessibilityCompiler.NotifierRegistered
 0001:00013EA0       VA508AccessibilityCompiler.OpenEditor
 0001:00012188       VA508AccessibilityCompiler.Register
 0001:0001363C       VA508AccessibilityCompiler.ReportComponentWarnings
 0001:00014E84       VA508AccessibilityCompiler.SaveCacheFile
 0004:00000084       VA508AccessibilityCompiler.SaveDllProc
 0001:00013C28       VA508AccessibilityCompiler.ScanForErrors
 0001:00013DCC       VA508AccessibilityCompiler.ScanFormFiles
 0001:00012E58       VA508AccessibilityCompiler.SetCacheSize
 0001:00012348       VA508AccessibilityCompiler.ShowErrorMessage
 0001:00012720       VA508AccessibilityCompiler.TVA508Compiler.AfterCompile
 0001:00012724       VA508AccessibilityCompiler.TVA508Compiler.AfterCompile
 0001:00012730       VA508AccessibilityCompiler.TVA508Compiler.AfterCompile
 0001:000126F0       VA508AccessibilityCompiler.TVA508Compiler.BeforeCompile
 0001:0001271C       VA508AccessibilityCompiler.TVA508Compiler.BeforeCompile
 0001:00012744       VA508AccessibilityCompiler.TVA508Compiler.CompileNA
 0001:00012758       VA508AccessibilityCompiler.TVA508Compiler.Create
 0001:000127A8       VA508AccessibilityCompiler.TVA508Compiler.Destroy
 0001:00012B3C       VA508AccessibilityCompiler.TVA508Compiler.error
 0001:00012CF8       VA508AccessibilityCompiler.TVA508Compiler.FileNotification
 0001:00012D40       VA508AccessibilityCompiler.TVA508Compiler.infoMessage
 0001:00012CA4       VA508AccessibilityCompiler.TVA508Compiler.msg
 0001:00015364       VA508AccessibilityCompiler.TVA508Compiler.ScanFor508Errors
 0001:000127E0       VA508AccessibilityCompiler.TVA508Compiler.startMessages
 0001:000127D8       VA508AccessibilityCompiler.TVA508Compiler.StopCompile
 0001:0001294C       VA508AccessibilityCompiler.TVA508Compiler.stopMessages
 0001:00012ABC       VA508AccessibilityCompiler.TVA508Compiler.UpdateMonitor
 0001:00012BF0       VA508AccessibilityCompiler.TVA508Compiler.warning
 0001:00012234       VA508AccessibilityCompiler.Unregister
 0002:000002E0       VA508AccessibilityCompiler.VA508AccessibilityCompiler
 0001:000130C8       VA508AccessibilityCompiler.ValidateDFM
 0001:00012FA4       VA508AccessibilityCompiler.ValidObjectLine
 0004:00000018       VA508AccessibilityConst..1
 0001:00000E08       VA508AccessibilityConst.Finalization
 0002:000000CC       VA508AccessibilityConst.VA508AccessibilityConst
 0004:00000050       VA508AccessibilityManager..21
 0001:0000BBFC       VA508AccessibilityManager..TAlternateHandleData
 0001:0000F5B4       VA508AccessibilityManager..TComplexDataItem
 0001:00009DB0       VA508AccessibilityManager..TComponentHelper
 0001:00009EDC       VA508AccessibilityManager..TDFMData
 0001:00009F5C       VA508AccessibilityManager..TMSAAData
 0001:00008F24       VA508AccessibilityManager..TVA508AccessibilityCollection
 0001:00008D5C       VA508AccessibilityManager..TVA508AccessibilityItem
 0001:0000900C       VA508AccessibilityManager..TVA508AccessibilityManager
 0001:000096C4       VA508AccessibilityManager..TVA508ChainedLabel
 0001:00009C78       VA508AccessibilityManager..TVA508ComplexComponentManager
 0001:000091F8       VA508AccessibilityManager..TVA508ComponentAccessibility
 0001:000095CC       VA508AccessibilityManager..TVA508ComponentManager
 0001:00009B78       VA508AccessibilityManager..TVA508ManagedComponentClass
 0001:00009A80       VA508AccessibilityManager..TVA508SilentComponent
 0001:000097FC       VA508AccessibilityManager..TVA508StaticText
 0001:00009E60       VA508AccessibilityManager..TVAGlobalComponentRegistry
 0001:0000C3F4       VA508AccessibilityManager.AddControlType
 0001:0000ACD0       VA508AccessibilityManager.AddLabels
 0003:000002DC       VA508AccessibilityManager.AltHandleClasses
 0001:0000AB0C       VA508AccessibilityManager.BasicComponentCheck
 0003:000002EC       VA508AccessibilityManager.CanCheckEvent
 0001:0000D27C       VA508AccessibilityManager.CheckComplexClasses
 0001:0000D1D4       VA508AccessibilityManager.CheckManagedClasses
 0003:000002E4       VA508AccessibilityManager.ComplexClasses
 0003:0000028C       VA508AccessibilityManager.ControlsWithDefaultPropertySettings
 0001:00009FB4       VA508AccessibilityManager.CreateGlobalRegistry
 0001:00009FD8       VA508AccessibilityManager.CreateGlobalVars
 0001:0000D2F4       VA508AccessibilityManager.CreateHelper
 0001:0000ED78       VA508AccessibilityManager.DrawBottom
 0001:0000F448       VA508AccessibilityManager.DrawBottom
 0001:0000F2BC       VA508AccessibilityManager.DrawPartials
 0001:0000F3E8       VA508AccessibilityManager.DrawSides
 0001:0000F170       VA508AccessibilityManager.DrawText
 0001:0000F358       VA508AccessibilityManager.DrawTop
 0001:0000ED18       VA508AccessibilityManager.DrawTop
 0001:0000AAC8       VA508AccessibilityManager.error
 0001:0000FAD0       VA508AccessibilityManager.Finalization
 0001:0000BDC4       VA508AccessibilityManager.FindMSAAQueryData
 0001:0000A850       VA508AccessibilityManager.FindOwnedComponent
 0001:0000D984       VA508AccessibilityManager.FindRootHandle
 0001:00009FF8       VA508AccessibilityManager.FreeGlobalVars
 0001:0000C7BC       VA508AccessibilityManager.GetDataValues
 0001:0000CC3C       VA508AccessibilityManager.GetMessageHookProc
 0003:000002D8       VA508AccessibilityManager.GlobalRegistry
 0001:0000BE78       VA508AccessibilityManager.HandleStillValid
 0001:0000C5A4       VA508AccessibilityManager.HelperValid
 0001:0000BF24       VA508AccessibilityManager.Init
 0001:0000EC24       VA508AccessibilityManager.Init
 0001:0000F11C       VA508AccessibilityManager.Init
 0001:0000F1EC       VA508AccessibilityManager.InitDrawBorder
 0001:0000EC78       VA508AccessibilityManager.InitDrawBorder
 0001:0000E020       VA508AccessibilityManager.InitializeComponentHelper
 0001:0000C730       VA508AccessibilityManager.InitializeVars
 0003:000002E0       VA508AccessibilityManager.ManagedClasses
 0003:000002D4       VA508AccessibilityManager.MasterPropertyList
 0003:000002E8       VA508AccessibilityManager.MSAAQueryClasses
 0003:000002BC       VA508AccessibilityManager.NewComponentData
 0001:0000BEAC       VA508AccessibilityManager.NoChangeNeeded
 0001:0000BF78       VA508AccessibilityManager.ProcessCaptionChange
 0001:0000C034       VA508AccessibilityManager.ProcessItemChange
 0001:0000C32C       VA508AccessibilityManager.ProcessStateChange
 0001:0000BC60       VA508AccessibilityManager.RegisterAlternateHandleComponent
 0001:0000BCD8       VA508AccessibilityManager.RegisterComplexComponentManager
 0001:0000D390       VA508AccessibilityManager.RegisterComponent
 0001:0000BD4C       VA508AccessibilityManager.RegisterManagedComponentClass
 0001:0000BE10       VA508AccessibilityManager.RegisterMSAAProc
 0001:0000BE64       VA508AccessibilityManager.RegisterMSAAQueryClassProc
 0001:0000BE6C       VA508AccessibilityManager.RegisterMSAAQueryListClassProc
 0001:0000C474       VA508AccessibilityManager.SendChangeData
 0001:0000D51C       VA508AccessibilityManager.SkipCheck
 0001:0000F614       VA508AccessibilityManager.TComplexDataItem.Create
 0001:0000F66C       VA508AccessibilityManager.TComplexDataItem.Destroy
 0001:0000E22C       VA508AccessibilityManager.TComponentHelper.ClearRedirect
 0001:0000E23C       VA508AccessibilityManager.TComponentHelper.Create
 0001:0000E270       VA508AccessibilityManager.TComponentHelper.Destroy
 0001:0000E2CC       VA508AccessibilityManager.TComponentHelper.GetCaption
 0001:0000E36C       VA508AccessibilityManager.TComponentHelper.GetComponentName
 0001:0000E400       VA508AccessibilityManager.TComponentHelper.GetData
 0001:0000E4A4       VA508AccessibilityManager.TComponentHelper.GetInstructions
 0001:0000E538       VA508AccessibilityManager.TComponentHelper.GetItem
 0001:0000E5A0       VA508AccessibilityManager.TComponentHelper.GetItemInstructions
 0001:0000E634       VA508AccessibilityManager.TComponentHelper.GetState
 0001:0000E6E4       VA508AccessibilityManager.TComponentHelper.GetValue
 0001:0000E1A8       VA508AccessibilityManager.TComponentHelper.InitializeComponentManager
 0001:0000E86C       VA508AccessibilityManager.TComponentHelper.ManageCaption
 0001:0000E760       VA508AccessibilityManager.TComponentHelper.ManageComponentName
 0001:0000E7AC       VA508AccessibilityManager.TComponentHelper.ManageData
 0001:0000E7DC       VA508AccessibilityManager.TComponentHelper.ManageItemInstructions
 0001:0000E828       VA508AccessibilityManager.TComponentHelper.ManageValue
 0001:0000E8B8       VA508AccessibilityManager.TComponentHelper.MonitorForItemChange
 0001:0000E8FC       VA508AccessibilityManager.TComponentHelper.MonitorForStateChange
 0001:0000E958       VA508AccessibilityManager.TComponentHelper.Redirect
 0001:0000E970       VA508AccessibilityManager.TComponentHelper.StandardComponent
 0001:0000A448       VA508AccessibilityManager.TVA508AccessibilityCollection.Add
 0001:0000A454       VA508AccessibilityManager.TVA508AccessibilityCollection.ComponentNotifyEvent
 0001:0000A4A0       VA508AccessibilityManager.TVA508AccessibilityCollection.Create
 0001:0000A51C       VA508AccessibilityManager.TVA508AccessibilityCollection.Destroy
 0001:0000A55C       VA508AccessibilityManager.TVA508AccessibilityCollection.EnsureItemExists
 0001:0000A564       VA508AccessibilityManager.TVA508AccessibilityCollection.FindItem
 0001:0000A608       VA508AccessibilityManager.TVA508AccessibilityCollection.GetItem
 0001:0000A61C       VA508AccessibilityManager.TVA508AccessibilityCollection.GetOwner
 0001:0000A620       VA508AccessibilityManager.TVA508AccessibilityCollection.IsComponentRegistered
 0001:0000A710       VA508AccessibilityManager.TVA508AccessibilityCollection.RegisterComponent
 0001:0000A708       VA508AccessibilityManager.TVA508AccessibilityCollection.SetItem
 0001:0000A684       VA508AccessibilityManager.TVA508AccessibilityCollection.UnregisterComponent
 0001:0000A06C       VA508AccessibilityManager.TVA508AccessibilityItem.Assign
 0001:0000A0C8       VA508AccessibilityManager.TVA508AccessibilityItem.Create
 0001:0000A100       VA508AccessibilityManager.TVA508AccessibilityItem.Destroy
 0001:0000A144       VA508AccessibilityManager.TVA508AccessibilityItem.GetDisplayName
 0001:0000A21C       VA508AccessibilityManager.TVA508AccessibilityItem.InitComponent
 0001:0000A240       VA508AccessibilityManager.TVA508AccessibilityItem.Manager
 0001:0000A248       VA508AccessibilityManager.TVA508AccessibilityItem.Parent
 0001:0000A24C       VA508AccessibilityManager.TVA508AccessibilityItem.SetComponent
 0001:0000A2BC       VA508AccessibilityManager.TVA508AccessibilityItem.SetDefault
 0001:0000A348       VA508AccessibilityManager.TVA508AccessibilityItem.SetLabel
 0001:0000A370       VA508AccessibilityManager.TVA508AccessibilityItem.SetProperty
 0001:0000A3CC       VA508AccessibilityManager.TVA508AccessibilityItem.SetText
 0001:0000A404       VA508AccessibilityManager.TVA508AccessibilityItem.UpdateStatus
 0001:0000A7A0       VA508AccessibilityManager.TVA508AccessibilityManager.Create
 0001:0000B394       VA508AccessibilityManager.TVA508AccessibilityManager.DefineProperties
 0001:0000A808       VA508AccessibilityManager.TVA508AccessibilityManager.Destroy
 0001:0000A974       VA508AccessibilityManager.TVA508AccessibilityManager.FindComponentOnForm
 0001:0000AA50       VA508AccessibilityManager.TVA508AccessibilityManager.GetAccessLabel
 0001:0000AA68       VA508AccessibilityManager.TVA508AccessibilityManager.GetAccessProperty
 0001:0000AA8C       VA508AccessibilityManager.TVA508AccessibilityManager.GetAccessText
 0001:0000AAB0       VA508AccessibilityManager.TVA508AccessibilityManager.GetComponentManager
 0001:0000AB8C       VA508AccessibilityManager.TVA508AccessibilityManager.GetComponentName
 0001:0000AC04       VA508AccessibilityManager.TVA508AccessibilityManager.GetData
 0001:0000AC08       VA508AccessibilityManager.TVA508AccessibilityManager.GetDefaultStringProperty
 0001:0000ADF4       VA508AccessibilityManager.TVA508AccessibilityManager.GetLabelStrings
 0001:0000AE1C       VA508AccessibilityManager.TVA508AccessibilityManager.GetProperties
 0001:0000AE3C       VA508AccessibilityManager.TVA508AccessibilityManager.GetPropertList
 0001:0000B004       VA508AccessibilityManager.TVA508AccessibilityManager.GetRootComponent
 0001:0000B0E0       VA508AccessibilityManager.TVA508AccessibilityManager.GetUseDefault
 0001:0000BAEC       VA508AccessibilityManager.TVA508AccessibilityManager.Initialize
 0001:0000B0FC       VA508AccessibilityManager.TVA508AccessibilityManager.IsPropertyNameValid
 0001:0000B168       VA508AccessibilityManager.TVA508AccessibilityManager.Loaded
 0001:0000B320       VA508AccessibilityManager.TVA508AccessibilityManager.Notification
 0001:0000B378       VA508AccessibilityManager.TVA508AccessibilityManager.OwnerCheck
 0001:0000B3D0       VA508AccessibilityManager.TVA508AccessibilityManager.ReadData
 0001:0000B630       VA508AccessibilityManager.TVA508AccessibilityManager.RefreshComponents
 0001:0000B864       VA508AccessibilityManager.TVA508AccessibilityManager.ScreenReaderInquiry
 0001:0000B9BC       VA508AccessibilityManager.TVA508AccessibilityManager.SetAccessLabel
 0001:0000B9DC       VA508AccessibilityManager.TVA508AccessibilityManager.SetAccessProperty
 0001:0000B9FC       VA508AccessibilityManager.TVA508AccessibilityManager.SetAccessText
 0001:0000BA1C       VA508AccessibilityManager.TVA508AccessibilityManager.SetComponentManager
 0001:0000BA38       VA508AccessibilityManager.TVA508AccessibilityManager.SetUseDefault
 0001:0000B638       VA508AccessibilityManager.TVA508AccessibilityManager.WriteData
 0001:0000F0D0       VA508AccessibilityManager.TVA508ChainedLabel.Notification
 0001:0000F4F4       VA508AccessibilityManager.TVA508ChainedLabel.Paint
 0001:0000F560       VA508AccessibilityManager.TVA508ChainedLabel.SetNextLabel
 0001:0000F6A0       VA508AccessibilityManager.TVA508ComplexComponentManager.AddSubControl
 0001:0000F79C       VA508AccessibilityManager.TVA508ComplexComponentManager.ClearSubControls
 0001:0000F9C0       VA508AccessibilityManager.TVA508ComplexComponentManager.ComponentNotifyEvent
 0001:0000F814       VA508AccessibilityManager.TVA508ComplexComponentManager.Create
 0001:0000F890       VA508AccessibilityManager.TVA508ComplexComponentManager.Destroy
 0001:0000F8D8       VA508AccessibilityManager.TVA508ComplexComponentManager.GetSubComponentList
 0001:0000F928       VA508AccessibilityManager.TVA508ComplexComponentManager.GetSubControl
 0001:0000F950       VA508AccessibilityManager.TVA508ComplexComponentManager.IndexOfComponentItem
 0001:0000F988       VA508AccessibilityManager.TVA508ComplexComponentManager.IndexOfSubComponentXRef
 0001:0000F734       VA508AccessibilityManager.TVA508ComplexComponentManager.RemoveSubControl
 0001:0000FA0C       VA508AccessibilityManager.TVA508ComplexComponentManager.SubComponentNotifyEvent
 0001:0000FA64       VA508AccessibilityManager.TVA508ComplexComponentManager.SubControlCount
 0001:0000DE38       VA508AccessibilityManager.TVA508ComponentAccessibility.Create
 0001:0000DE88       VA508AccessibilityManager.TVA508ComponentAccessibility.SetComponent
 0001:0000DC60       VA508AccessibilityManager.TVA508ComponentManager.Create
 0001:0000DC94       VA508AccessibilityManager.TVA508ComponentManager.GetCaption
 0001:0000DCA0       VA508AccessibilityManager.TVA508ComponentManager.GetComponentName
 0001:0000DCAC       VA508AccessibilityManager.TVA508ComponentManager.GetData
 0001:0000DCE0       VA508AccessibilityManager.TVA508ComponentManager.GetInstructions
 0001:0000DCEC       VA508AccessibilityManager.TVA508ComponentManager.GetItem
 0001:0000DCF0       VA508AccessibilityManager.TVA508ComponentManager.GetItemInstructions
 0001:0000DCFC       VA508AccessibilityManager.TVA508ComponentManager.GetState
 0001:0000DD08       VA508AccessibilityManager.TVA508ComponentManager.GetValue
 0001:0000DD14       VA508AccessibilityManager.TVA508ComponentManager.ManageCaption
 0001:0000DD1C       VA508AccessibilityManager.TVA508ComponentManager.ManageComponentName
 0001:0000DD24       VA508AccessibilityManager.TVA508ComponentManager.ManageData
 0001:0000DD2C       VA508AccessibilityManager.TVA508ComponentManager.ManageInstructions
 0001:0000DD34       VA508AccessibilityManager.TVA508ComponentManager.ManageItemInstructions
 0001:0000DD3C       VA508AccessibilityManager.TVA508ComponentManager.ManageState
 0001:0000DD44       VA508AccessibilityManager.TVA508ComponentManager.ManageValue
 0001:0000DD4C       VA508AccessibilityManager.TVA508ComponentManager.MonitorForItemChange
 0001:0000DD54       VA508AccessibilityManager.TVA508ComponentManager.MonitorForStateChange
 0001:0000DD5C       VA508AccessibilityManager.TVA508ComponentManager.Redirect
 0001:0000DD64       VA508AccessibilityManager.TVA508ComponentManager.RedirectsComponent
 0001:0000DD6C       VA508AccessibilityManager.TVA508ManagedComponentClass.Create
 0001:0000DDB8       VA508AccessibilityManager.TVA508SilentComponent.GetComponentName
 0001:0000DDD8       VA508AccessibilityManager.TVA508SilentComponent.GetInstructions
 0001:0000DDF8       VA508AccessibilityManager.TVA508SilentComponent.GetState
 0001:0000DE18       VA508AccessibilityManager.TVA508SilentComponent.GetValue
 0001:0000E984       VA508AccessibilityManager.TVA508StaticText.CMFontChanged
 0001:0000E998       VA508AccessibilityManager.TVA508StaticText.CMTextChanged
 0001:0000E9AC       VA508AccessibilityManager.TVA508StaticText.Create
 0001:0000EA38       VA508AccessibilityManager.TVA508StaticText.DeleteChain
 0001:0000EAD4       VA508AccessibilityManager.TVA508StaticText.Destroy
 0001:0000EB10       VA508AccessibilityManager.TVA508StaticText.DoEnter
 0001:0000EB3C       VA508AccessibilityManager.TVA508StaticText.DoExit
 0001:0000EB68       VA508AccessibilityManager.TVA508StaticText.GetAlignment
 0001:0000EB78       VA508AccessibilityManager.TVA508StaticText.GetLabelCaption
 0001:0000EB90       VA508AccessibilityManager.TVA508StaticText.GetRootName
 0001:0000EBA4       VA508AccessibilityManager.TVA508StaticText.GetShowAccelChar
 0001:0000EBB4       VA508AccessibilityManager.TVA508StaticText.InvalidateAll
 0001:0000EBE4       VA508AccessibilityManager.TVA508StaticText.Notification
 0001:0000EE70       VA508AccessibilityManager.TVA508StaticText.Paint
 0001:0000EE9C       VA508AccessibilityManager.TVA508StaticText.SetAlignment
 0001:0000EEA8       VA508AccessibilityManager.TVA508StaticText.SetLabelCaption
 0001:0000EF98       VA508AccessibilityManager.TVA508StaticText.SetNextLabel
 0001:0000EFDC       VA508AccessibilityManager.TVA508StaticText.SetParent
 0001:0000EF14       VA508AccessibilityManager.TVA508StaticText.SetRootName
 0001:0000F034       VA508AccessibilityManager.TVA508StaticText.SetShowAccelChar
 0001:0000F040       VA508AccessibilityManager.TVA508StaticText.UpdateSize
 0001:0000C4D8       VA508AccessibilityManager.TVAGlobalComponentRegistry.CheckForChangeEvent
 0001:0000CA1C       VA508AccessibilityManager.TVAGlobalComponentRegistry.ComponentDataNeededEvent
 0001:0000CCCC       VA508AccessibilityManager.TVAGlobalComponentRegistry.Create
 0001:0000CDD0       VA508AccessibilityManager.TVAGlobalComponentRegistry.Destroy
 0004:00000054       VA508AccessibilityManager.TVAGlobalComponentRegistry.FActive
 0004:00000058       VA508AccessibilityManager.TVAGlobalComponentRegistry.FGetMsgHookHandle
 0001:0000CE44       VA508AccessibilityManager.TVAGlobalComponentRegistry.GetCompKey
 0001:0000CE58       VA508AccessibilityManager.TVAGlobalComponentRegistry.GetComponentHandle
 0001:0000CF2C       VA508AccessibilityManager.TVAGlobalComponentRegistry.GetComponentHelper
 0001:0000CFD8       VA508AccessibilityManager.TVAGlobalComponentRegistry.HasHandle
 0001:0000D4B8       VA508AccessibilityManager.TVAGlobalComponentRegistry.RegisterComponent
 0001:0000D0CC       VA508AccessibilityManager.TVAGlobalComponentRegistry.RegisterFieldObject
 0001:0000D190       VA508AccessibilityManager.TVAGlobalComponentRegistry.RegisterMSAA
 0001:0000D540       VA508AccessibilityManager.TVAGlobalComponentRegistry.TimerEvent
 0001:0000D660       VA508AccessibilityManager.TVAGlobalComponentRegistry.UnregisterComponent
 0001:0000D790       VA508AccessibilityManager.TVAGlobalComponentRegistry.UnregisterMSAA
 0001:0000DBD4       VA508AccessibilityManager.TVAGlobalComponentRegistry.UpdateHandles
 0001:0000BA58       VA508AccessibilityManager.Update
 0001:0000DA0C       VA508AccessibilityManager.UpdateAllHandles
 0001:0000DA80       VA508AccessibilityManager.UpdateChildrenHandles
 0001:0000B274       VA508AccessibilityManager.UpdateComponent
 0001:0000C63C       VA508AccessibilityManager.UpdateComponentData
 0001:0000D7D4       VA508AccessibilityManager.UpdateHandle
 0002:000001C4       VA508AccessibilityManager.VA508AccessibilityManager
 0004:0000005C       VA508AccessibilityPE..8
 0001:000104B4       VA508AccessibilityPE..TVA508AccessibilityComponentPropertyEditor
 0001:0001028C       VA508AccessibilityPE..TVA508AccessibilityLabelPropertyEditor
 0001:0000FE3C       VA508AccessibilityPE..TVA508AccessibilityManager4PE
 0001:0000FF1C       VA508AccessibilityPE..TVA508AccessibilityPropertyMapper
 0001:000103A4       VA508AccessibilityPE..TVA508AccessibilityPropertyPropertyEditor
 0001:00010188       VA508AccessibilityPE..TVA508CollectionPropertyEditor
 0001:00010080       VA508AccessibilityPE..TVA508NestedPropertyEditor
 0001:00010684       VA508AccessibilityPE.AllComponentsHaveSameManager
 0001:000118A4       VA508AccessibilityPE.Finalization
 0001:000105D4       VA508AccessibilityPE.GetAccessibilityManager
 0001:000106D8       VA508AccessibilityPE.GetStringPropertyNames
 0001:000107B4       VA508AccessibilityPE.QVal
 0001:00011774       VA508AccessibilityPE.Register
 0001:00010828       VA508AccessibilityPE.StripQVal
 0001:00011768       VA508AccessibilityPE.TVA508AccessibilityComponentPropertyEditor.GetAttributes
 0001:00011254       VA508AccessibilityPE.TVA508AccessibilityLabelPropertyEditor.GetAttributes
 0001:00011260       VA508AccessibilityPE.TVA508AccessibilityLabelPropertyEditor.GetManager
 0001:00011280       VA508AccessibilityPE.TVA508AccessibilityLabelPropertyEditor.GetProperties
 0001:00011288       VA508AccessibilityPE.TVA508AccessibilityLabelPropertyEditor.GetValue
 0001:0001131C       VA508AccessibilityPE.TVA508AccessibilityLabelPropertyEditor.GetValues
 0001:000113D8       VA508AccessibilityPE.TVA508AccessibilityLabelPropertyEditor.SetValue
 0001:000108A8       VA508AccessibilityPE.TVA508AccessibilityPropertyMapper.GetAttributes
 0001:000108D4       VA508AccessibilityPE.TVA508AccessibilityPropertyMapper.GetProperties
 0001:00011428       VA508AccessibilityPE.TVA508AccessibilityPropertyPropertyEditor.AllEqual
 0001:000114D0       VA508AccessibilityPE.TVA508AccessibilityPropertyPropertyEditor.GetAttributes
 0001:000114DC       VA508AccessibilityPE.TVA508AccessibilityPropertyPropertyEditor.GetEditLimit
 0001:000114E4       VA508AccessibilityPE.TVA508AccessibilityPropertyPropertyEditor.GetManager
 0001:00011504       VA508AccessibilityPE.TVA508AccessibilityPropertyPropertyEditor.GetRootComponent
 0001:0001151C       VA508AccessibilityPE.TVA508AccessibilityPropertyPropertyEditor.GetValue
 0001:000115B0       VA508AccessibilityPE.TVA508AccessibilityPropertyPropertyEditor.GetValues
 0001:00011718       VA508AccessibilityPE.TVA508AccessibilityPropertyPropertyEditor.SetValue
 0001:00011248       VA508AccessibilityPE.TVA508CollectionPropertyEditor.GetColOptions
 0001:000109D4       VA508AccessibilityPE.TVA508NestedPropertyEditor.AllEqual
 0001:00010BA8       VA508AccessibilityPE.TVA508NestedPropertyEditor.Create
 0001:00010C3C       VA508AccessibilityPE.TVA508NestedPropertyEditor.Edit
 0001:00010C9C       VA508AccessibilityPE.TVA508NestedPropertyEditor.GetAttributes
 0001:00010CDC       VA508AccessibilityPE.TVA508NestedPropertyEditor.GetEditLimit
 0001:00010CFC       VA508AccessibilityPE.TVA508NestedPropertyEditor.GetName
 0001:00010D10       VA508AccessibilityPE.TVA508NestedPropertyEditor.GetValue
 0001:00010E9C       VA508AccessibilityPE.TVA508NestedPropertyEditor.GetValues
 0001:000110C0       VA508AccessibilityPE.TVA508NestedPropertyEditor.SetValue
 0002:000002A8       VA508AccessibilityPE.VA508AccessibilityPE
 0004:0000003C       VA508AccessibilityRouter..2
 0001:00002D6C       VA508AccessibilityRouter..TMasterScreenReader
 0001:00002CF0       VA508AccessibilityRouter..TNullScreenReader
 0001:00002C34       VA508AccessibilityRouter..TVA508ScreenReader
 0003:00000238       VA508AccessibilityRouter.ActiveScreenReader
 0001:00003DC8       VA508AccessibilityRouter.AddDescription
 0003:00000250       VA508AccessibilityRouter.CheckScreenReaderSystemActive
 0001:000035E4       VA508AccessibilityRouter.Coded
 0001:00004110       VA508AccessibilityRouter.ComponentDataRequested
 0001:00003168       VA508AccessibilityRouter.CreateTimer
 0001:00003428       VA508AccessibilityRouter.Decode
 0001:00003A40       VA508AccessibilityRouter.EnsureDialogAreSpecified
 0001:000039EC       VA508AccessibilityRouter.EnumResNameProc
 0001:00004338       VA508AccessibilityRouter.Finalization
 0001:00002E24       VA508AccessibilityRouter.GetScreenReader
 0003:0000023C       VA508AccessibilityRouter.MasterScreenReader
 0003:00000248       VA508AccessibilityRouter.Need2RegisterData
 0003:0000024C       VA508AccessibilityRouter.OK2RegisterData
 0001:00002E6C       VA508AccessibilityRouter.PostScreenReaderCheckEvent
 0003:00000244       VA508AccessibilityRouter.SaveInitProc
 0001:000031CC       VA508AccessibilityRouter.ScreenReaderSystemActive
 0001:000032AC       VA508AccessibilityRouter.SpecifyFormIsNotADialog
 0001:000033B0       VA508AccessibilityRouter.TMasterScreenReader.AddComponentDataNeededEventHandler
 0001:000033C4       VA508AccessibilityRouter.TMasterScreenReader.Create
 0001:000034C8       VA508AccessibilityRouter.TMasterScreenReader.DecodeBehavior
 0001:000035A0       VA508AccessibilityRouter.TMasterScreenReader.Destroy
 0001:000036BC       VA508AccessibilityRouter.TMasterScreenReader.EncodeBehavior
 0001:0000375C       VA508AccessibilityRouter.TMasterScreenReader.HandleSRException
 0001:000037D0       VA508AccessibilityRouter.TMasterScreenReader.ProcessCustomKeyCommand
 0001:000037FC       VA508AccessibilityRouter.TMasterScreenReader.RegisterClassAsMSAA
 0001:00003860       VA508AccessibilityRouter.TMasterScreenReader.RegisterCustomBehavior
 0001:00003974       VA508AccessibilityRouter.TMasterScreenReader.RegisterCustomClassBehavior
 0001:00003C78       VA508AccessibilityRouter.TMasterScreenReader.RegisterCustomData
 0001:00003EF8       VA508AccessibilityRouter.TMasterScreenReader.RegisterCustomKeyMapping
 0001:00003FD8       VA508AccessibilityRouter.TMasterScreenReader.RegisterDictionaryChange
 0001:00004040       VA508AccessibilityRouter.TMasterScreenReader.RegistrationAllowed
 0001:00004058       VA508AccessibilityRouter.TMasterScreenReader.RemoveComponentDataNeededEventHandler
 0001:0000406C       VA508AccessibilityRouter.TMasterScreenReader.Speak
 0001:00004240       VA508AccessibilityRouter.TNullScreenReader.AddComponentDataNeededEventHandler
 0001:00004248       VA508AccessibilityRouter.TNullScreenReader.RegisterClassAsMSAA
 0001:00004270       VA508AccessibilityRouter.TNullScreenReader.RegisterCustomClassBehavior
 0001:00004298       VA508AccessibilityRouter.TNullScreenReader.RegisterCustomKeyMapping
 0001:000042E0       VA508AccessibilityRouter.TNullScreenReader.RegisterDictionaryChange
 0001:00004308       VA508AccessibilityRouter.TNullScreenReader.RemoveComponentDataNeededEventHandler
 0001:00004310       VA508AccessibilityRouter.TNullScreenReader.Speak
 0003:00000240       VA508AccessibilityRouter.uNonDialogClassNames
 0003:00000258       VA508AccessibilityRouter.uPostScreenReaderActivationTimer
 0003:00000254       VA508AccessibilityRouter.uScreenReaderSystemActive
 0002:00000138       VA508AccessibilityRouter.VA508AccessibilityRouter
 0001:00002DE8       VA508AccessibilityRouter.VA508RouterInitProc
 0004:0000004C       VA508Classes..5
 0001:000073DC       VA508Classes..EVA508AccessibilityException
 0001:00007334       VA508Classes..TFormData
 0001:00007544       VA508Classes..TParentChildFormTracker
 0001:000076CC       VA508Classes..TVA508Parser
 0001:000077F4       VA508Classes.EnsureManager
 0001:00008CBC       VA508Classes.Finalization
 0001:0000777C       VA508Classes.HasAnotherAccessibilityManager
 0001:00008980       VA508Classes.IgnoreToken
 0001:000089B0       VA508Classes.InvalidSection
 0001:00007ED8       VA508Classes.TFormData.HasManager
 0001:00007EE4       VA508Classes.TFormData.HasParent
 0001:00007EEC       VA508Classes.TFormData.SetFormClassName
 0001:00007F48       VA508Classes.TParentChildFormTracker.AddForm
 0001:00008010       VA508Classes.TParentChildFormTracker.AddLink
 0001:00008088       VA508Classes.TParentChildFormTracker.Clear
 0001:00008094       VA508Classes.TParentChildFormTracker.Create
 0001:000080D0       VA508Classes.TParentChildFormTracker.Destroy
 0001:00008100       VA508Classes.TParentChildFormTracker.FindForm
 0001:0000819C       VA508Classes.TParentChildFormTracker.FormCount
 0001:000081A4       VA508Classes.TParentChildFormTracker.GetFormData
 0001:000081B8       VA508Classes.TParentChildFormTracker.ParentChildErrorDescription
 0001:000086B4       VA508Classes.TParentChildFormTracker.ParentChildErrorStatus
 0001:000087B4       VA508Classes.TVA508Parser.GetParentClassName
 0001:00008974       VA508Classes.TVA508Parser.LastLineRead
 0001:00008978       VA508Classes.TVA508Parser.LastPosition
 0001:00008A5C       VA508Classes.TVA508Parser.ParseToken
 0002:000001BC       VA508Classes.VA508Classes
 0001:00007910       VA508Classes.VA508ComponentCreationCheck
 0001:00007C34       VA508Classes.VA508ComponentDestructionCheck
 0004:00000044       VA508DelphiCompatibility..2
 0001:00004D7C       VA508DelphiCompatibility..TCheckBox508Manager
 0001:00004E2C       VA508DelphiCompatibility..TCheckListBox508Manager
 0001:00005040       VA508DelphiCompatibility..TCustomGrid508Manager
 0001:00004F90       VA508DelphiCompatibility..TVA508ComboManager
 0001:00004EE0       VA508DelphiCompatibility..TVA508EditManager
 0001:00004C84       VA508DelphiCompatibility..TVA508StaticTextManager
 0001:000050F4       VA508DelphiCompatibility.Append
 0001:00005190       VA508DelphiCompatibility.AppendHeader
 0001:0000551C       VA508DelphiCompatibility.CustomComboAlternateHandle
 0001:00005DEC       VA508DelphiCompatibility.Finalization
 0001:00005524       VA508DelphiCompatibility.GetCheckBoxComponentName
 0001:0000557C       VA508DelphiCompatibility.GetCheckBoxInstructionMessage
 0001:000055F0       VA508DelphiCompatibility.GetCheckBoxStateText
 0001:00005208       VA508DelphiCompatibility.ListViewIndexQueryProc
 0001:000053B8       VA508DelphiCompatibility.RegisterStandardDelphiComponents
 0001:00005674       VA508DelphiCompatibility.TCheckBox508Manager.Create
 0001:000056C0       VA508DelphiCompatibility.TCheckBox508Manager.GetComponentName
 0001:000056D8       VA508DelphiCompatibility.TCheckBox508Manager.GetInstructions
 0001:000056F4       VA508DelphiCompatibility.TCheckBox508Manager.GetState
 0001:0000570C       VA508DelphiCompatibility.TCheckListBox508Manager.Create
 0001:00005758       VA508DelphiCompatibility.TCheckListBox508Manager.GetComponentName
 0001:000057F0       VA508DelphiCompatibility.TCheckListBox508Manager.GetIndex
 0001:00005824       VA508DelphiCompatibility.TCheckListBox508Manager.GetItem
 0001:000057C0       VA508DelphiCompatibility.TCheckListBox508Manager.GetItemInstructions
 0001:00005850       VA508DelphiCompatibility.TCheckListBox508Manager.GetState
 0001:00005880       VA508DelphiCompatibility.TCustomGrid508Manager.Create
 0001:000058CC       VA508DelphiCompatibility.TCustomGrid508Manager.GetComponentName
 0001:000058F0       VA508DelphiCompatibility.TCustomGrid508Manager.GetInstructions
 0001:0000597C       VA508DelphiCompatibility.TCustomGrid508Manager.GetItem
 0001:000059B0       VA508DelphiCompatibility.TCustomGrid508Manager.GetValue
 0001:00005D8C       VA508DelphiCompatibility.TVA508ComboManager.Create
 0001:00005DD8       VA508DelphiCompatibility.TVA508ComboManager.GetValue
 0001:00005D2C       VA508DelphiCompatibility.TVA508EditManager.Create
 0001:00005D78       VA508DelphiCompatibility.TVA508EditManager.GetValue
 0001:00005C18       VA508DelphiCompatibility.TVA508StaticTextManager.Create
 0001:00005C64       VA508DelphiCompatibility.TVA508StaticTextManager.GetCaption
 0001:00005C84       VA508DelphiCompatibility.TVA508StaticTextManager.GetComponentName
 0001:00005CA8       VA508DelphiCompatibility.TVA508StaticTextManager.GetValue
 0002:000001A4       VA508DelphiCompatibility.VA508DelphiCompatibility
 0004:00000048       VA508ImageListLabeler..6
 0001:00006060       VA508ImageListLabeler..TVA508ImageListComponent
 0001:0000614C       VA508ImageListLabeler..TVA508ImageListComponents
 0001:00005E3C       VA508ImageListLabeler..TVA508ImageListLabel
 0001:00006228       VA508ImageListLabeler..TVA508ImageListLabeler
 0001:00005F7C       VA508ImageListLabeler..TVA508ImageListLabels
 0001:00007304       VA508ImageListLabeler.Finalization
 0001:0000638C       VA508ImageListLabeler.Register
 0001:00006F84       VA508ImageListLabeler.TVA508ImageListComponent.Assign
 0001:00006FB4       VA508ImageListLabeler.TVA508ImageListComponent.ComponentNotifyEvent
 0001:00006FCC       VA508ImageListLabeler.TVA508ImageListComponent.Destroy
 0001:00007008       VA508ImageListLabeler.TVA508ImageListComponent.GetDisplayName
 0001:000070CC       VA508ImageListLabeler.TVA508ImageListComponent.ImageListTypes
 0001:00007198       VA508ImageListLabeler.TVA508ImageListComponent.Labeler
 0001:000071B4       VA508ImageListLabeler.TVA508ImageListComponent.SetComponent
 0001:00006ED0       VA508ImageListLabeler.TVA508ImageListComponents.Add
 0001:00006EDC       VA508ImageListLabeler.TVA508ImageListComponents.Create
 0001:00006F20       VA508ImageListLabeler.TVA508ImageListComponents.Destroy
 0001:00006F4C       VA508ImageListLabeler.TVA508ImageListComponents.GetItem
 0001:00006F60       VA508ImageListLabeler.TVA508ImageListComponents.GetOwner
 0001:00006F64       VA508ImageListLabeler.TVA508ImageListComponents.Notify
 0001:00006F7C       VA508ImageListLabeler.TVA508ImageListComponents.SetItem
 0001:00006D2C       VA508ImageListLabeler.TVA508ImageListLabel.Assign
 0001:00006D68       VA508ImageListLabeler.TVA508ImageListLabel.Changed
 0001:00006D7C       VA508ImageListLabeler.TVA508ImageListLabel.Create
 0001:00006DC0       VA508ImageListLabeler.TVA508ImageListLabel.Destroy
 0001:00006DE8       VA508ImageListLabeler.TVA508ImageListLabel.Labeler
 0001:00006E04       VA508ImageListLabeler.TVA508ImageListLabel.Refresh
 0001:00006E10       VA508ImageListLabeler.TVA508ImageListLabel.SetCaption
 0001:00006E44       VA508ImageListLabeler.TVA508ImageListLabel.SetImageIndex
 0001:00006EBC       VA508ImageListLabeler.TVA508ImageListLabel.SetOverlayIndex
 0001:000063B8       VA508ImageListLabeler.TVA508ImageListLabeler.ComponentImageListChanged
 0001:000063C0       VA508ImageListLabeler.TVA508ImageListLabeler.Create
 0001:00006464       VA508ImageListLabeler.TVA508ImageListLabeler.Destroy
 0001:000064CC       VA508ImageListLabeler.TVA508ImageListLabeler.ImageIndexQuery
 0001:00006584       VA508ImageListLabeler.TVA508ImageListLabeler.ImageListChange
 0001:00006624       VA508ImageListLabeler.TVA508ImageListLabeler.ItemChanged
 0001:00006644       VA508ImageListLabeler.TVA508ImageListLabeler.Loaded
 0001:000067BC       VA508ImageListLabeler.TVA508ImageListLabeler.Notification
 0001:0000666C       VA508ImageListLabeler.TVA508ImageListLabeler.SaveChanges
 0001:000067E8       VA508ImageListLabeler.TVA508ImageListLabeler.SetImageList
 0001:00006988       VA508ImageListLabeler.TVA508ImageListLabeler.SetRemoteLabeler
 0001:000069B0       VA508ImageListLabeler.TVA508ImageListLabels.Add
 0001:000069BC       VA508ImageListLabeler.TVA508ImageListLabels.Create
 0001:00006AAC       VA508ImageListLabeler.TVA508ImageListLabels.Destroy
 0001:00006AF0       VA508ImageListLabeler.TVA508ImageListLabels.GetAttr
 0001:00006B0C       VA508ImageListLabeler.TVA508ImageListLabels.GetAttrCount
 0001:00006B18       VA508ImageListLabeler.TVA508ImageListLabels.GetImageData
 0001:00006B8C       VA508ImageListLabeler.TVA508ImageListLabels.GetItem
 0001:00006BA0       VA508ImageListLabeler.TVA508ImageListLabels.GetItemAttr
 0001:00006C64       VA508ImageListLabeler.TVA508ImageListLabels.GetOverlayData
 0001:00006CDC       VA508ImageListLabeler.TVA508ImageListLabels.GetOwner
 0001:00006CE0       VA508ImageListLabeler.TVA508ImageListLabels.Notify
 0001:00006CF4       VA508ImageListLabeler.TVA508ImageListLabels.ResetData
 0001:00006D10       VA508ImageListLabeler.TVA508ImageListLabels.SetItem
 0001:00006D18       VA508ImageListLabeler.TVA508ImageListLabels.Update
 0002:000001B4       VA508ImageListLabeler.VA508ImageListLabeler
 0004:0000008C       VA508ImageListLabelerPE..7
 0001:000154F4       VA508ImageListLabelerPE..TfrmImageListEditor
 0001:00015814       VA508ImageListLabelerPE..TVA508ImageListComponentEditor
 0001:000158E4       VA508ImageListLabelerPE..TVA508ImageListComponentProperty
 0001:00015710       VA508ImageListLabelerPE..TVA508ImageListItemsProperty
 0001:000159F4       VA508ImageListLabelerPE..TVA508LabelerImageListProperty
 0001:00015AFC       VA508ImageListLabelerPE..TVA508LabelerRemoteLabelerProperty
 0001:00016680       VA508ImageListLabelerPE.Finalization
 0001:00015C0C       VA508ImageListLabelerPE.Register
 0001:00015CDC       VA508ImageListLabelerPE.TfrmImageListEditor.Create
 0001:00015D88       VA508ImageListLabelerPE.TfrmImageListEditor.Destroy
 0001:00015EF0       VA508ImageListLabelerPE.TfrmImageListEditor.GetImageList
 0001:00015F20       VA508ImageListLabelerPE.TfrmImageListEditor.GetSize
 0001:00015DD8       VA508ImageListLabelerPE.TfrmImageListEditor.ImageDataChanged
 0001:00015DE0       VA508ImageListLabelerPE.TfrmImageListEditor.ItemChange
 0001:00015E2C       VA508ImageListLabelerPE.TfrmImageListEditor.IterateItems
 0001:00015F50       VA508ImageListLabelerPE.TfrmImageListEditor.RedrawImages
 0001:000161C0       VA508ImageListLabelerPE.TfrmImageListEditor.UpdateImages
 0001:000162C0       VA508ImageListLabelerPE.TVA508ImageListComponentEditor.Edit
 0001:0001633C       VA508ImageListLabelerPE.TVA508ImageListComponentEditor.ExecuteVerb
 0001:0001634C       VA508ImageListLabelerPE.TVA508ImageListComponentEditor.GetVerb
 0001:0001639C       VA508ImageListLabelerPE.TVA508ImageListComponentEditor.GetVerbCount
 0001:000163A4       VA508ImageListLabelerPE.TVA508ImageListComponentProperty.FilterValues
 0001:0001648C       VA508ImageListLabelerPE.TVA508ImageListComponentProperty.GetValue
 0001:00016538       VA508ImageListLabelerPE.TVA508ImageListComponentProperty.GetValues
 0001:0001656C       VA508ImageListLabelerPE.TVA508ImageListComponentProperty.SetValue
 0001:00015D40       VA508ImageListLabelerPE.TVA508ImageListItemsProperty.GetAttributes
 0001:00015D80       VA508ImageListLabelerPE.TVA508ImageListItemsProperty.GetEditorClass
 0001:000165E8       VA508ImageListLabelerPE.TVA508LabelerImageListProperty.GetAttributes
 0001:0001661C       VA508ImageListLabelerPE.TVA508LabelerRemoteLabelerProperty.FilterValues
 0001:0001664C       VA508ImageListLabelerPE.TVA508LabelerRemoteLabelerProperty.GetValues
 0002:00000310       VA508ImageListLabelerPE.VA508ImageListLabelerPE
 0004:00000024       VA508MSAASupport..1
 0001:000013C8       VA508MSAASupport..TImageEventData
 0001:00001424       VA508MSAASupport..TListProcData
 0001:000015E4       VA508MSAASupport..TMSAAServer
 0001:00001480       VA508MSAASupport..TProcData
 0003:00000230       VA508MSAASupport.AccPropServices
 0003:00000234       VA508MSAASupport.AccServicesCount
 0001:00002090       VA508MSAASupport.Append
 0001:000017A8       VA508MSAASupport.Cleanup
 0001:00001784       VA508MSAASupport.DecAccServices
 0001:00002638       VA508MSAASupport.DoListComponent
 0001:0000231C       VA508MSAASupport.DoListView
 0001:000026A4       VA508MSAASupport.DoNormalComponent
 0001:000021DC       VA508MSAASupport.DoTreeView
 0003:0000022C       VA508MSAASupport.Events
 0001:00002AE4       VA508MSAASupport.Finalization
 0001:000017C8       VA508MSAASupport.FindServer
 0001:00002148       VA508MSAASupport.GetImageLabelText
 0001:0000270C       VA508MSAASupport.HasProperty
 0001:000016E8       VA508MSAASupport.IncAccServices
 0004:00000028       VA508MSAASupport.NamePropIDs
 0001:00002734       VA508MSAASupport.NoProperty
 0001:0000163C       VA508MSAASupport.NotifyEvent
 0001:00001884       VA508MSAASupport.RegisterComponentImageListQueryEvent
 0001:00001BE4       VA508MSAASupport.RegisterMSAAComponentListQueryProc
 0001:00001A40       VA508MSAASupport.RegisterMSAAComponentQueryProc
 0001:00001D88       VA508MSAASupport.TMSAAServer.AddImageEvent
 0001:00001DF0       VA508MSAASupport.TMSAAServer.AddListProc
 0001:00001E28       VA508MSAASupport.TMSAAServer.AddProc
 0001:00001E60       VA508MSAASupport.TMSAAServer.AssignServerType
 0001:00001E80       VA508MSAASupport.TMSAAServer.Attach
 0001:00001ED8       VA508MSAASupport.TMSAAServer.Create
 0001:00001F38       VA508MSAASupport.TMSAAServer.Destroy
 0001:00001F74       VA508MSAASupport.TMSAAServer.Detatch
 0001:00001FD8       VA508MSAASupport.TMSAAServer.EventCount
 0001:0000208C       VA508MSAASupport.TMSAAServer.GetComponent
 0001:00002750       VA508MSAASupport.TMSAAServer.GetPropValue
 0001:00002910       VA508MSAASupport.TMSAAServer.Hook
 0001:00001FE0       VA508MSAASupport.TMSAAServer.ImageEventIndex
 0001:0000203C       VA508MSAASupport.TMSAAServer.ListProcIndex
 0001:00002A50       VA508MSAASupport.TMSAAServer.MSAAWindowProc
 0001:00002A78       VA508MSAASupport.TMSAAServer.ProcIndex
 0001:00002930       VA508MSAASupport.TMSAAServer.RemoveImageEvent
 0001:00002960       VA508MSAASupport.TMSAAServer.RemoveListProc
 0001:00002984       VA508MSAASupport.TMSAAServer.RemoveProc
 0001:00002A1C       VA508MSAASupport.TMSAAServer.UnassignServerType
 0001:00002A40       VA508MSAASupport.TMSAAServer.UnHook
 0001:000029A8       VA508MSAASupport.TMSAAServer.ValidateServerType
 0004:00000038       VA508MSAASupport.uNotifier
 0001:00001974       VA508MSAASupport.UnregisterComponentImageListQueryEvent
 0001:00001CCC       VA508MSAASupport.UnregisterMSAAComponentListQueryProc
 0001:00001B28       VA508MSAASupport.UnregisterMSAAComponentQueryProc
 0003:00000228       VA508MSAASupport.uShutDown
 0003:00000220       VA508MSAASupport.VA508ImageListLabelerClasses
 0002:00000124       VA508MSAASupport.VA508MSAASupport
 0004:00000040       VA508ScreenReaderDLLLinker..1
 0001:000047E8       VA508ScreenReaderDLLLinker.CheckFile
 0001:00004638       VA508ScreenReaderDLLLinker.CheckProcs
 0001:000045EC       VA508ScreenReaderDLLLinker.CheckRunning
 0001:000043DC       VA508ScreenReaderDLLLinker.ClearProcPointers
 0001:00004458       VA508ScreenReaderDLLLinker.CloseScreenReaderLink
 0001:000043BC       VA508ScreenReaderDLLLinker.ComponentData
 0001:000043D8       VA508ScreenReaderDLLLinker.ConfigChangePending
 0003:00000288       VA508ScreenReaderDLLLinker.DLLHandle
 0003:00000278       VA508ScreenReaderDLLLinker.DoInitialize
 0003:00000274       VA508ScreenReaderDLLLinker.ExecuteFind
 0001:00004BEC       VA508ScreenReaderDLLLinker.Finalization
 0001:00004A84       VA508ScreenReaderDLLLinker.FindScreenReaders
 0001:000043A4       VA508ScreenReaderDLLLinker.Initialize
 0003:0000027C       VA508ScreenReaderDLLLinker.InitializeResult
 0001:0000441C       VA508ScreenReaderDLLLinker.InitializeScreenReaderLink
 0001:000043CC       VA508ScreenReaderDLLLinker.IsRunning
 0001:00004B60       VA508ScreenReaderDLLLinker.IsScreenReaderSupported
 0001:00004480       VA508ScreenReaderDLLLinker.LoadScreenReader
 0001:000043B4       VA508ScreenReaderDLLLinker.RegisterCustomBehavior
 0001:000048D0       VA508ScreenReaderDLLLinker.ScanScreenReaders
 0001:00004B48       VA508ScreenReaderDLLLinker.ScreenReaderDLLsExist
 0001:000043B0       VA508ScreenReaderDLLLinker.ShutDown
 0001:000043C4       VA508ScreenReaderDLLLinker.SpeakText
 0003:00000268       VA508ScreenReaderDLLLinker.SRComponentData
 0003:0000026C       VA508ScreenReaderDLLLinker.SRConfigChangePending
 0003:00000280       VA508ScreenReaderDLLLinker.SRInitialize
 0003:00000260       VA508ScreenReaderDLLLinker.SRIsRunning
 0003:00000264       VA508ScreenReaderDLLLinker.SRRegisterCustomBehavior
 0003:00000284       VA508ScreenReaderDLLLinker.SRShutDown
 0003:0000025C       VA508ScreenReaderDLLLinker.SRSpeakText
 0002:0000015C       VA508ScreenReaderDLLLinker.VA508ScreenReaderDLLLinker
 0003:00000270       VA508ScreenReaderDLLLinker.ValidSRFiles
 0004:00000010       Windows..3
 0001:00000470       Windows.CallNextHookEx
 0001:00000440       Windows.CompareString
 0001:00000448       Windows.EnumResourceNames
 0001:000004B8       Windows.Finalization
 0001:00000450       Windows.FreeLibrary
 0001:00000478       Windows.GetAncestor
 0001:00000458       Windows.GetCurrentThreadId
 0001:00000460       Windows.GetProcAddress
 0004:00000014       Windows.HtmlHelpModule
 0001:00000480       Windows.IsWindow
 0001:00000488       Windows.IsWindowVisible
 0001:00000468       Windows.LoadLibrary
 0001:00000490       Windows.MessageBox
 0001:00000498       Windows.PeekMessage
 0001:000004A0       Windows.PostMessage
 0001:000004A8       Windows.SetWindowsHookEx
 0001:000004B0       Windows.UnhookWindowsHookEx
 0002:00000010       Windows.Windows


  Address             Publics by Value

 0001:00000250       SysInit.FreeLibrary
 0001:00000258       SysInit.LocalAlloc
 0001:00000260       SysInit.LocalFree
 0001:00000268       SysInit.TlsAlloc
 0001:00000270       SysInit.TlsFree
 0001:00000278       SysInit.TlsGetValue
 0001:00000280       SysInit.TlsSetValue
 0001:00000288       SysInit.AllocTlsBuffer
 0001:00000294       SysInit.GetTlsSize
 0001:0000029C       SysInit.InitThreadTLS
 0001:000002E0       SysInit.InitProcessTLS
 0001:0000030C       SysInit.ExitThreadTLS
 0001:00000344       SysInit.ExitProcessTLS
 0001:00000368       SysInit.InitializeModule
 0001:00000374       SysInit.UninitializeModule
 0001:00000398       SysInit.@InitPkg
 0001:000003FC       SysInit.@PackageLoad
 0001:00000408       SysInit.@PackageUnload
 0001:00000440       Windows.CompareString
 0001:00000448       Windows.EnumResourceNames
 0001:00000450       Windows.FreeLibrary
 0001:00000458       Windows.GetCurrentThreadId
 0001:00000460       Windows.GetProcAddress
 0001:00000468       Windows.LoadLibrary
 0001:00000470       Windows.CallNextHookEx
 0001:00000478       Windows.GetAncestor
 0001:00000480       Windows.IsWindow
 0001:00000488       Windows.IsWindowVisible
 0001:00000490       Windows.MessageBox
 0001:00000498       Windows.PeekMessage
 0001:000004A0       Windows.PostMessage
 0001:000004A8       Windows.SetWindowsHookEx
 0001:000004B0       Windows.UnhookWindowsHookEx
 0001:000004B8       Windows.Finalization
 0001:00000E08       VA508AccessibilityConst.Finalization
 0001:00000F78       MSAAConstants.Finalization
 0001:000010FC       oleacc2..CoCAccPropServices
 0001:00001188       oleacc2.CoCAccPropServices.Create
 0001:000011EC       oleacc2.CoCAccPropServices.CreateRemote
 0001:0000126C       oleacc2.Finalization
 0001:000013C8       VA508MSAASupport..TImageEventData
 0001:00001424       VA508MSAASupport..TListProcData
 0001:00001480       VA508MSAASupport..TProcData
 0001:000015E4       VA508MSAASupport..TMSAAServer
 0001:0000163C       VA508MSAASupport.NotifyEvent
 0001:000016E8       VA508MSAASupport.IncAccServices
 0001:00001784       VA508MSAASupport.DecAccServices
 0001:000017A8       VA508MSAASupport.Cleanup
 0001:000017C8       VA508MSAASupport.FindServer
 0001:00001884       VA508MSAASupport.RegisterComponentImageListQueryEvent
 0001:00001974       VA508MSAASupport.UnregisterComponentImageListQueryEvent
 0001:00001A40       VA508MSAASupport.RegisterMSAAComponentQueryProc
 0001:00001B28       VA508MSAASupport.UnregisterMSAAComponentQueryProc
 0001:00001BE4       VA508MSAASupport.RegisterMSAAComponentListQueryProc
 0001:00001CCC       VA508MSAASupport.UnregisterMSAAComponentListQueryProc
 0001:00001D88       VA508MSAASupport.TMSAAServer.AddImageEvent
 0001:00001DF0       VA508MSAASupport.TMSAAServer.AddListProc
 0001:00001E28       VA508MSAASupport.TMSAAServer.AddProc
 0001:00001E60       VA508MSAASupport.TMSAAServer.AssignServerType
 0001:00001E80       VA508MSAASupport.TMSAAServer.Attach
 0001:00001ED8       VA508MSAASupport.TMSAAServer.Create
 0001:00001F38       VA508MSAASupport.TMSAAServer.Destroy
 0001:00001F74       VA508MSAASupport.TMSAAServer.Detatch
 0001:00001FD8       VA508MSAASupport.TMSAAServer.EventCount
 0001:00001FE0       VA508MSAASupport.TMSAAServer.ImageEventIndex
 0001:0000203C       VA508MSAASupport.TMSAAServer.ListProcIndex
 0001:0000208C       VA508MSAASupport.TMSAAServer.GetComponent
 0001:00002090       VA508MSAASupport.Append
 0001:00002148       VA508MSAASupport.GetImageLabelText
 0001:000021DC       VA508MSAASupport.DoTreeView
 0001:0000231C       VA508MSAASupport.DoListView
 0001:00002638       VA508MSAASupport.DoListComponent
 0001:000026A4       VA508MSAASupport.DoNormalComponent
 0001:0000270C       VA508MSAASupport.HasProperty
 0001:00002734       VA508MSAASupport.NoProperty
 0001:00002750       VA508MSAASupport.TMSAAServer.GetPropValue
 0001:00002910       VA508MSAASupport.TMSAAServer.Hook
 0001:00002930       VA508MSAASupport.TMSAAServer.RemoveImageEvent
 0001:00002960       VA508MSAASupport.TMSAAServer.RemoveListProc
 0001:00002984       VA508MSAASupport.TMSAAServer.RemoveProc
 0001:000029A8       VA508MSAASupport.TMSAAServer.ValidateServerType
 0001:00002A1C       VA508MSAASupport.TMSAAServer.UnassignServerType
 0001:00002A40       VA508MSAASupport.TMSAAServer.UnHook
 0001:00002A50       VA508MSAASupport.TMSAAServer.MSAAWindowProc
 0001:00002A78       VA508MSAASupport.TMSAAServer.ProcIndex
 0001:00002AE4       VA508MSAASupport.Finalization
 0001:00002C34       VA508AccessibilityRouter..TVA508ScreenReader
 0001:00002CF0       VA508AccessibilityRouter..TNullScreenReader
 0001:00002D6C       VA508AccessibilityRouter..TMasterScreenReader
 0001:00002DE8       VA508AccessibilityRouter.VA508RouterInitProc
 0001:00002E24       VA508AccessibilityRouter.GetScreenReader
 0001:00002E6C       VA508AccessibilityRouter.PostScreenReaderCheckEvent
 0001:00003168       VA508AccessibilityRouter.CreateTimer
 0001:000031CC       VA508AccessibilityRouter.ScreenReaderSystemActive
 0001:000032AC       VA508AccessibilityRouter.SpecifyFormIsNotADialog
 0001:000033B0       VA508AccessibilityRouter.TMasterScreenReader.AddComponentDataNeededEventHandler
 0001:000033C4       VA508AccessibilityRouter.TMasterScreenReader.Create
 0001:00003428       VA508AccessibilityRouter.Decode
 0001:000034C8       VA508AccessibilityRouter.TMasterScreenReader.DecodeBehavior
 0001:000035A0       VA508AccessibilityRouter.TMasterScreenReader.Destroy
 0001:000035E4       VA508AccessibilityRouter.Coded
 0001:000036BC       VA508AccessibilityRouter.TMasterScreenReader.EncodeBehavior
 0001:0000375C       VA508AccessibilityRouter.TMasterScreenReader.HandleSRException
 0001:000037D0       VA508AccessibilityRouter.TMasterScreenReader.ProcessCustomKeyCommand
 0001:000037FC       VA508AccessibilityRouter.TMasterScreenReader.RegisterClassAsMSAA
 0001:00003860       VA508AccessibilityRouter.TMasterScreenReader.RegisterCustomBehavior
 0001:00003974       VA508AccessibilityRouter.TMasterScreenReader.RegisterCustomClassBehavior
 0001:000039EC       VA508AccessibilityRouter.EnumResNameProc
 0001:00003A40       VA508AccessibilityRouter.EnsureDialogAreSpecified
 0001:00003C78       VA508AccessibilityRouter.TMasterScreenReader.RegisterCustomData
 0001:00003DC8       VA508AccessibilityRouter.AddDescription
 0001:00003EF8       VA508AccessibilityRouter.TMasterScreenReader.RegisterCustomKeyMapping
 0001:00003FD8       VA508AccessibilityRouter.TMasterScreenReader.RegisterDictionaryChange
 0001:00004040       VA508AccessibilityRouter.TMasterScreenReader.RegistrationAllowed
 0001:00004058       VA508AccessibilityRouter.TMasterScreenReader.RemoveComponentDataNeededEventHandler
 0001:0000406C       VA508AccessibilityRouter.TMasterScreenReader.Speak
 0001:00004110       VA508AccessibilityRouter.ComponentDataRequested
 0001:00004240       VA508AccessibilityRouter.TNullScreenReader.AddComponentDataNeededEventHandler
 0001:00004248       VA508AccessibilityRouter.TNullScreenReader.RegisterClassAsMSAA
 0001:00004270       VA508AccessibilityRouter.TNullScreenReader.RegisterCustomClassBehavior
 0001:00004298       VA508AccessibilityRouter.TNullScreenReader.RegisterCustomKeyMapping
 0001:000042E0       VA508AccessibilityRouter.TNullScreenReader.RegisterDictionaryChange
 0001:00004308       VA508AccessibilityRouter.TNullScreenReader.RemoveComponentDataNeededEventHandler
 0001:00004310       VA508AccessibilityRouter.TNullScreenReader.Speak
 0001:00004338       VA508AccessibilityRouter.Finalization
 0001:000043A4       VA508ScreenReaderDLLLinker.Initialize
 0001:000043B0       VA508ScreenReaderDLLLinker.ShutDown
 0001:000043B4       VA508ScreenReaderDLLLinker.RegisterCustomBehavior
 0001:000043BC       VA508ScreenReaderDLLLinker.ComponentData
 0001:000043C4       VA508ScreenReaderDLLLinker.SpeakText
 0001:000043CC       VA508ScreenReaderDLLLinker.IsRunning
 0001:000043D8       VA508ScreenReaderDLLLinker.ConfigChangePending
 0001:000043DC       VA508ScreenReaderDLLLinker.ClearProcPointers
 0001:0000441C       VA508ScreenReaderDLLLinker.InitializeScreenReaderLink
 0001:00004458       VA508ScreenReaderDLLLinker.CloseScreenReaderLink
 0001:00004480       VA508ScreenReaderDLLLinker.LoadScreenReader
 0001:000045EC       VA508ScreenReaderDLLLinker.CheckRunning
 0001:00004638       VA508ScreenReaderDLLLinker.CheckProcs
 0001:000047E8       VA508ScreenReaderDLLLinker.CheckFile
 0001:000048D0       VA508ScreenReaderDLLLinker.ScanScreenReaders
 0001:00004A84       VA508ScreenReaderDLLLinker.FindScreenReaders
 0001:00004B48       VA508ScreenReaderDLLLinker.ScreenReaderDLLsExist
 0001:00004B60       VA508ScreenReaderDLLLinker.IsScreenReaderSupported
 0001:00004BEC       VA508ScreenReaderDLLLinker.Finalization
 0001:00004C84       VA508DelphiCompatibility..TVA508StaticTextManager
 0001:00004D7C       VA508DelphiCompatibility..TCheckBox508Manager
 0001:00004E2C       VA508DelphiCompatibility..TCheckListBox508Manager
 0001:00004EE0       VA508DelphiCompatibility..TVA508EditManager
 0001:00004F90       VA508DelphiCompatibility..TVA508ComboManager
 0001:00005040       VA508DelphiCompatibility..TCustomGrid508Manager
 0001:000050F4       VA508DelphiCompatibility.Append
 0001:00005190       VA508DelphiCompatibility.AppendHeader
 0001:00005208       VA508DelphiCompatibility.ListViewIndexQueryProc
 0001:000053B8       VA508DelphiCompatibility.RegisterStandardDelphiComponents
 0001:0000551C       VA508DelphiCompatibility.CustomComboAlternateHandle
 0001:00005524       VA508DelphiCompatibility.GetCheckBoxComponentName
 0001:0000557C       VA508DelphiCompatibility.GetCheckBoxInstructionMessage
 0001:000055F0       VA508DelphiCompatibility.GetCheckBoxStateText
 0001:00005674       VA508DelphiCompatibility.TCheckBox508Manager.Create
 0001:000056C0       VA508DelphiCompatibility.TCheckBox508Manager.GetComponentName
 0001:000056D8       VA508DelphiCompatibility.TCheckBox508Manager.GetInstructions
 0001:000056F4       VA508DelphiCompatibility.TCheckBox508Manager.GetState
 0001:0000570C       VA508DelphiCompatibility.TCheckListBox508Manager.Create
 0001:00005758       VA508DelphiCompatibility.TCheckListBox508Manager.GetComponentName
 0001:000057C0       VA508DelphiCompatibility.TCheckListBox508Manager.GetItemInstructions
 0001:000057F0       VA508DelphiCompatibility.TCheckListBox508Manager.GetIndex
 0001:00005824       VA508DelphiCompatibility.TCheckListBox508Manager.GetItem
 0001:00005850       VA508DelphiCompatibility.TCheckListBox508Manager.GetState
 0001:00005880       VA508DelphiCompatibility.TCustomGrid508Manager.Create
 0001:000058CC       VA508DelphiCompatibility.TCustomGrid508Manager.GetComponentName
 0001:000058F0       VA508DelphiCompatibility.TCustomGrid508Manager.GetInstructions
 0001:0000597C       VA508DelphiCompatibility.TCustomGrid508Manager.GetItem
 0001:000059B0       VA508DelphiCompatibility.TCustomGrid508Manager.GetValue
 0001:00005C18       VA508DelphiCompatibility.TVA508StaticTextManager.Create
 0001:00005C64       VA508DelphiCompatibility.TVA508StaticTextManager.GetCaption
 0001:00005C84       VA508DelphiCompatibility.TVA508StaticTextManager.GetComponentName
 0001:00005CA8       VA508DelphiCompatibility.TVA508StaticTextManager.GetValue
 0001:00005D2C       VA508DelphiCompatibility.TVA508EditManager.Create
 0001:00005D78       VA508DelphiCompatibility.TVA508EditManager.GetValue
 0001:00005D8C       VA508DelphiCompatibility.TVA508ComboManager.Create
 0001:00005DD8       VA508DelphiCompatibility.TVA508ComboManager.GetValue
 0001:00005DEC       VA508DelphiCompatibility.Finalization
 0001:00005E3C       VA508ImageListLabeler..TVA508ImageListLabel
 0001:00005F7C       VA508ImageListLabeler..TVA508ImageListLabels
 0001:00006060       VA508ImageListLabeler..TVA508ImageListComponent
 0001:0000614C       VA508ImageListLabeler..TVA508ImageListComponents
 0001:00006228       VA508ImageListLabeler..TVA508ImageListLabeler
 0001:0000638C       VA508ImageListLabeler.Register
 0001:000063B8       VA508ImageListLabeler.TVA508ImageListLabeler.ComponentImageListChanged
 0001:000063C0       VA508ImageListLabeler.TVA508ImageListLabeler.Create
 0001:00006464       VA508ImageListLabeler.TVA508ImageListLabeler.Destroy
 0001:000064CC       VA508ImageListLabeler.TVA508ImageListLabeler.ImageIndexQuery
 0001:00006584       VA508ImageListLabeler.TVA508ImageListLabeler.ImageListChange
 0001:00006624       VA508ImageListLabeler.TVA508ImageListLabeler.ItemChanged
 0001:00006644       VA508ImageListLabeler.TVA508ImageListLabeler.Loaded
 0001:0000666C       VA508ImageListLabeler.TVA508ImageListLabeler.SaveChanges
 0001:000067BC       VA508ImageListLabeler.TVA508ImageListLabeler.Notification
 0001:000067E8       VA508ImageListLabeler.TVA508ImageListLabeler.SetImageList
 0001:00006988       VA508ImageListLabeler.TVA508ImageListLabeler.SetRemoteLabeler
 0001:000069B0       VA508ImageListLabeler.TVA508ImageListLabels.Add
 0001:000069BC       VA508ImageListLabeler.TVA508ImageListLabels.Create
 0001:00006AAC       VA508ImageListLabeler.TVA508ImageListLabels.Destroy
 0001:00006AF0       VA508ImageListLabeler.TVA508ImageListLabels.GetAttr
 0001:00006B0C       VA508ImageListLabeler.TVA508ImageListLabels.GetAttrCount
 0001:00006B18       VA508ImageListLabeler.TVA508ImageListLabels.GetImageData
 0001:00006B8C       VA508ImageListLabeler.TVA508ImageListLabels.GetItem
 0001:00006BA0       VA508ImageListLabeler.TVA508ImageListLabels.GetItemAttr
 0001:00006C64       VA508ImageListLabeler.TVA508ImageListLabels.GetOverlayData
 0001:00006CDC       VA508ImageListLabeler.TVA508ImageListLabels.GetOwner
 0001:00006CE0       VA508ImageListLabeler.TVA508ImageListLabels.Notify
 0001:00006CF4       VA508ImageListLabeler.TVA508ImageListLabels.ResetData
 0001:00006D10       VA508ImageListLabeler.TVA508ImageListLabels.SetItem
 0001:00006D18       VA508ImageListLabeler.TVA508ImageListLabels.Update
 0001:00006D2C       VA508ImageListLabeler.TVA508ImageListLabel.Assign
 0001:00006D68       VA508ImageListLabeler.TVA508ImageListLabel.Changed
 0001:00006D7C       VA508ImageListLabeler.TVA508ImageListLabel.Create
 0001:00006DC0       VA508ImageListLabeler.TVA508ImageListLabel.Destroy
 0001:00006DE8       VA508ImageListLabeler.TVA508ImageListLabel.Labeler
 0001:00006E04       VA508ImageListLabeler.TVA508ImageListLabel.Refresh
 0001:00006E10       VA508ImageListLabeler.TVA508ImageListLabel.SetCaption
 0001:00006E44       VA508ImageListLabeler.TVA508ImageListLabel.SetImageIndex
 0001:00006EBC       VA508ImageListLabeler.TVA508ImageListLabel.SetOverlayIndex
 0001:00006ED0       VA508ImageListLabeler.TVA508ImageListComponents.Add
 0001:00006EDC       VA508ImageListLabeler.TVA508ImageListComponents.Create
 0001:00006F20       VA508ImageListLabeler.TVA508ImageListComponents.Destroy
 0001:00006F4C       VA508ImageListLabeler.TVA508ImageListComponents.GetItem
 0001:00006F60       VA508ImageListLabeler.TVA508ImageListComponents.GetOwner
 0001:00006F64       VA508ImageListLabeler.TVA508ImageListComponents.Notify
 0001:00006F7C       VA508ImageListLabeler.TVA508ImageListComponents.SetItem
 0001:00006F84       VA508ImageListLabeler.TVA508ImageListComponent.Assign
 0001:00006FB4       VA508ImageListLabeler.TVA508ImageListComponent.ComponentNotifyEvent
 0001:00006FCC       VA508ImageListLabeler.TVA508ImageListComponent.Destroy
 0001:00007008       VA508ImageListLabeler.TVA508ImageListComponent.GetDisplayName
 0001:000070CC       VA508ImageListLabeler.TVA508ImageListComponent.ImageListTypes
 0001:00007198       VA508ImageListLabeler.TVA508ImageListComponent.Labeler
 0001:000071B4       VA508ImageListLabeler.TVA508ImageListComponent.SetComponent
 0001:00007304       VA508ImageListLabeler.Finalization
 0001:00007334       VA508Classes..TFormData
 0001:000073DC       VA508Classes..EVA508AccessibilityException
 0001:00007544       VA508Classes..TParentChildFormTracker
 0001:000076CC       VA508Classes..TVA508Parser
 0001:0000777C       VA508Classes.HasAnotherAccessibilityManager
 0001:000077F4       VA508Classes.EnsureManager
 0001:00007910       VA508Classes.VA508ComponentCreationCheck
 0001:00007C34       VA508Classes.VA508ComponentDestructionCheck
 0001:00007ED8       VA508Classes.TFormData.HasManager
 0001:00007EE4       VA508Classes.TFormData.HasParent
 0001:00007EEC       VA508Classes.TFormData.SetFormClassName
 0001:00007F48       VA508Classes.TParentChildFormTracker.AddForm
 0001:00008010       VA508Classes.TParentChildFormTracker.AddLink
 0001:00008088       VA508Classes.TParentChildFormTracker.Clear
 0001:00008094       VA508Classes.TParentChildFormTracker.Create
 0001:000080D0       VA508Classes.TParentChildFormTracker.Destroy
 0001:00008100       VA508Classes.TParentChildFormTracker.FindForm
 0001:0000819C       VA508Classes.TParentChildFormTracker.FormCount
 0001:000081A4       VA508Classes.TParentChildFormTracker.GetFormData
 0001:000081B8       VA508Classes.TParentChildFormTracker.ParentChildErrorDescription
 0001:000086B4       VA508Classes.TParentChildFormTracker.ParentChildErrorStatus
 0001:000087B4       VA508Classes.TVA508Parser.GetParentClassName
 0001:00008974       VA508Classes.TVA508Parser.LastLineRead
 0001:00008978       VA508Classes.TVA508Parser.LastPosition
 0001:00008980       VA508Classes.IgnoreToken
 0001:000089B0       VA508Classes.InvalidSection
 0001:00008A5C       VA508Classes.TVA508Parser.ParseToken
 0001:00008CBC       VA508Classes.Finalization
 0001:00008D5C       VA508AccessibilityManager..TVA508AccessibilityItem
 0001:00008F24       VA508AccessibilityManager..TVA508AccessibilityCollection
 0001:0000900C       VA508AccessibilityManager..TVA508AccessibilityManager
 0001:000091F8       VA508AccessibilityManager..TVA508ComponentAccessibility
 0001:000095CC       VA508AccessibilityManager..TVA508ComponentManager
 0001:000096C4       VA508AccessibilityManager..TVA508ChainedLabel
 0001:000097FC       VA508AccessibilityManager..TVA508StaticText
 0001:00009A80       VA508AccessibilityManager..TVA508SilentComponent
 0001:00009B78       VA508AccessibilityManager..TVA508ManagedComponentClass
 0001:00009C78       VA508AccessibilityManager..TVA508ComplexComponentManager
 0001:00009DB0       VA508AccessibilityManager..TComponentHelper
 0001:00009E60       VA508AccessibilityManager..TVAGlobalComponentRegistry
 0001:00009EDC       VA508AccessibilityManager..TDFMData
 0001:00009F5C       VA508AccessibilityManager..TMSAAData
 0001:00009FB4       VA508AccessibilityManager.CreateGlobalRegistry
 0001:00009FD8       VA508AccessibilityManager.CreateGlobalVars
 0001:00009FF8       VA508AccessibilityManager.FreeGlobalVars
 0001:0000A06C       VA508AccessibilityManager.TVA508AccessibilityItem.Assign
 0001:0000A0C8       VA508AccessibilityManager.TVA508AccessibilityItem.Create
 0001:0000A100       VA508AccessibilityManager.TVA508AccessibilityItem.Destroy
 0001:0000A144       VA508AccessibilityManager.TVA508AccessibilityItem.GetDisplayName
 0001:0000A21C       VA508AccessibilityManager.TVA508AccessibilityItem.InitComponent
 0001:0000A240       VA508AccessibilityManager.TVA508AccessibilityItem.Manager
 0001:0000A248       VA508AccessibilityManager.TVA508AccessibilityItem.Parent
 0001:0000A24C       VA508AccessibilityManager.TVA508AccessibilityItem.SetComponent
 0001:0000A2BC       VA508AccessibilityManager.TVA508AccessibilityItem.SetDefault
 0001:0000A348       VA508AccessibilityManager.TVA508AccessibilityItem.SetLabel
 0001:0000A370       VA508AccessibilityManager.TVA508AccessibilityItem.SetProperty
 0001:0000A3CC       VA508AccessibilityManager.TVA508AccessibilityItem.SetText
 0001:0000A404       VA508AccessibilityManager.TVA508AccessibilityItem.UpdateStatus
 0001:0000A448       VA508AccessibilityManager.TVA508AccessibilityCollection.Add
 0001:0000A454       VA508AccessibilityManager.TVA508AccessibilityCollection.ComponentNotifyEvent
 0001:0000A4A0       VA508AccessibilityManager.TVA508AccessibilityCollection.Create
 0001:0000A51C       VA508AccessibilityManager.TVA508AccessibilityCollection.Destroy
 0001:0000A55C       VA508AccessibilityManager.TVA508AccessibilityCollection.EnsureItemExists
 0001:0000A564       VA508AccessibilityManager.TVA508AccessibilityCollection.FindItem
 0001:0000A608       VA508AccessibilityManager.TVA508AccessibilityCollection.GetItem
 0001:0000A61C       VA508AccessibilityManager.TVA508AccessibilityCollection.GetOwner
 0001:0000A620       VA508AccessibilityManager.TVA508AccessibilityCollection.IsComponentRegistered
 0001:0000A684       VA508AccessibilityManager.TVA508AccessibilityCollection.UnregisterComponent
 0001:0000A708       VA508AccessibilityManager.TVA508AccessibilityCollection.SetItem
 0001:0000A710       VA508AccessibilityManager.TVA508AccessibilityCollection.RegisterComponent
 0001:0000A7A0       VA508AccessibilityManager.TVA508AccessibilityManager.Create
 0001:0000A808       VA508AccessibilityManager.TVA508AccessibilityManager.Destroy
 0001:0000A850       VA508AccessibilityManager.FindOwnedComponent
 0001:0000A974       VA508AccessibilityManager.TVA508AccessibilityManager.FindComponentOnForm
 0001:0000AA50       VA508AccessibilityManager.TVA508AccessibilityManager.GetAccessLabel
 0001:0000AA68       VA508AccessibilityManager.TVA508AccessibilityManager.GetAccessProperty
 0001:0000AA8C       VA508AccessibilityManager.TVA508AccessibilityManager.GetAccessText
 0001:0000AAB0       VA508AccessibilityManager.TVA508AccessibilityManager.GetComponentManager
 0001:0000AAC8       VA508AccessibilityManager.error
 0001:0000AB0C       VA508AccessibilityManager.BasicComponentCheck
 0001:0000AB8C       VA508AccessibilityManager.TVA508AccessibilityManager.GetComponentName
 0001:0000AC04       VA508AccessibilityManager.TVA508AccessibilityManager.GetData
 0001:0000AC08       VA508AccessibilityManager.TVA508AccessibilityManager.GetDefaultStringProperty
 0001:0000ACD0       VA508AccessibilityManager.AddLabels
 0001:0000ADF4       VA508AccessibilityManager.TVA508AccessibilityManager.GetLabelStrings
 0001:0000AE1C       VA508AccessibilityManager.TVA508AccessibilityManager.GetProperties
 0001:0000AE3C       VA508AccessibilityManager.TVA508AccessibilityManager.GetPropertList
 0001:0000B004       VA508AccessibilityManager.TVA508AccessibilityManager.GetRootComponent
 0001:0000B0E0       VA508AccessibilityManager.TVA508AccessibilityManager.GetUseDefault
 0001:0000B0FC       VA508AccessibilityManager.TVA508AccessibilityManager.IsPropertyNameValid
 0001:0000B168       VA508AccessibilityManager.TVA508AccessibilityManager.Loaded
 0001:0000B274       VA508AccessibilityManager.UpdateComponent
 0001:0000B320       VA508AccessibilityManager.TVA508AccessibilityManager.Notification
 0001:0000B378       VA508AccessibilityManager.TVA508AccessibilityManager.OwnerCheck
 0001:0000B394       VA508AccessibilityManager.TVA508AccessibilityManager.DefineProperties
 0001:0000B3D0       VA508AccessibilityManager.TVA508AccessibilityManager.ReadData
 0001:0000B630       VA508AccessibilityManager.TVA508AccessibilityManager.RefreshComponents
 0001:0000B638       VA508AccessibilityManager.TVA508AccessibilityManager.WriteData
 0001:0000B864       VA508AccessibilityManager.TVA508AccessibilityManager.ScreenReaderInquiry
 0001:0000B9BC       VA508AccessibilityManager.TVA508AccessibilityManager.SetAccessLabel
 0001:0000B9DC       VA508AccessibilityManager.TVA508AccessibilityManager.SetAccessProperty
 0001:0000B9FC       VA508AccessibilityManager.TVA508AccessibilityManager.SetAccessText
 0001:0000BA1C       VA508AccessibilityManager.TVA508AccessibilityManager.SetComponentManager
 0001:0000BA38       VA508AccessibilityManager.TVA508AccessibilityManager.SetUseDefault
 0001:0000BA58       VA508AccessibilityManager.Update
 0001:0000BAEC       VA508AccessibilityManager.TVA508AccessibilityManager.Initialize
 0001:0000BBFC       VA508AccessibilityManager..TAlternateHandleData
 0001:0000BC60       VA508AccessibilityManager.RegisterAlternateHandleComponent
 0001:0000BCD8       VA508AccessibilityManager.RegisterComplexComponentManager
 0001:0000BD4C       VA508AccessibilityManager.RegisterManagedComponentClass
 0001:0000BDC4       VA508AccessibilityManager.FindMSAAQueryData
 0001:0000BE10       VA508AccessibilityManager.RegisterMSAAProc
 0001:0000BE64       VA508AccessibilityManager.RegisterMSAAQueryClassProc
 0001:0000BE6C       VA508AccessibilityManager.RegisterMSAAQueryListClassProc
 0001:0000BE78       VA508AccessibilityManager.HandleStillValid
 0001:0000BEAC       VA508AccessibilityManager.NoChangeNeeded
 0001:0000BF24       VA508AccessibilityManager.Init
 0001:0000BF78       VA508AccessibilityManager.ProcessCaptionChange
 0001:0000C034       VA508AccessibilityManager.ProcessItemChange
 0001:0000C32C       VA508AccessibilityManager.ProcessStateChange
 0001:0000C3F4       VA508AccessibilityManager.AddControlType
 0001:0000C474       VA508AccessibilityManager.SendChangeData
 0001:0000C4D8       VA508AccessibilityManager.TVAGlobalComponentRegistry.CheckForChangeEvent
 0001:0000C5A4       VA508AccessibilityManager.HelperValid
 0001:0000C63C       VA508AccessibilityManager.UpdateComponentData
 0001:0000C730       VA508AccessibilityManager.InitializeVars
 0001:0000C7BC       VA508AccessibilityManager.GetDataValues
 0001:0000CA1C       VA508AccessibilityManager.TVAGlobalComponentRegistry.ComponentDataNeededEvent
 0001:0000CC3C       VA508AccessibilityManager.GetMessageHookProc
 0001:0000CCCC       VA508AccessibilityManager.TVAGlobalComponentRegistry.Create
 0001:0000CDD0       VA508AccessibilityManager.TVAGlobalComponentRegistry.Destroy
 0001:0000CE44       VA508AccessibilityManager.TVAGlobalComponentRegistry.GetCompKey
 0001:0000CE58       VA508AccessibilityManager.TVAGlobalComponentRegistry.GetComponentHandle
 0001:0000CF2C       VA508AccessibilityManager.TVAGlobalComponentRegistry.GetComponentHelper
 0001:0000CFD8       VA508AccessibilityManager.TVAGlobalComponentRegistry.HasHandle
 0001:0000D0CC       VA508AccessibilityManager.TVAGlobalComponentRegistry.RegisterFieldObject
 0001:0000D190       VA508AccessibilityManager.TVAGlobalComponentRegistry.RegisterMSAA
 0001:0000D1D4       VA508AccessibilityManager.CheckManagedClasses
 0001:0000D27C       VA508AccessibilityManager.CheckComplexClasses
 0001:0000D2F4       VA508AccessibilityManager.CreateHelper
 0001:0000D390       VA508AccessibilityManager.RegisterComponent
 0001:0000D4B8       VA508AccessibilityManager.TVAGlobalComponentRegistry.RegisterComponent
 0001:0000D51C       VA508AccessibilityManager.SkipCheck
 0001:0000D540       VA508AccessibilityManager.TVAGlobalComponentRegistry.TimerEvent
 0001:0000D660       VA508AccessibilityManager.TVAGlobalComponentRegistry.UnregisterComponent
 0001:0000D790       VA508AccessibilityManager.TVAGlobalComponentRegistry.UnregisterMSAA
 0001:0000D7D4       VA508AccessibilityManager.UpdateHandle
 0001:0000D984       VA508AccessibilityManager.FindRootHandle
 0001:0000DA0C       VA508AccessibilityManager.UpdateAllHandles
 0001:0000DA80       VA508AccessibilityManager.UpdateChildrenHandles
 0001:0000DBD4       VA508AccessibilityManager.TVAGlobalComponentRegistry.UpdateHandles
 0001:0000DC60       VA508AccessibilityManager.TVA508ComponentManager.Create
 0001:0000DC94       VA508AccessibilityManager.TVA508ComponentManager.GetCaption
 0001:0000DCA0       VA508AccessibilityManager.TVA508ComponentManager.GetComponentName
 0001:0000DCAC       VA508AccessibilityManager.TVA508ComponentManager.GetData
 0001:0000DCE0       VA508AccessibilityManager.TVA508ComponentManager.GetInstructions
 0001:0000DCEC       VA508AccessibilityManager.TVA508ComponentManager.GetItem
 0001:0000DCF0       VA508AccessibilityManager.TVA508ComponentManager.GetItemInstructions
 0001:0000DCFC       VA508AccessibilityManager.TVA508ComponentManager.GetState
 0001:0000DD08       VA508AccessibilityManager.TVA508ComponentManager.GetValue
 0001:0000DD14       VA508AccessibilityManager.TVA508ComponentManager.ManageCaption
 0001:0000DD1C       VA508AccessibilityManager.TVA508ComponentManager.ManageComponentName
 0001:0000DD24       VA508AccessibilityManager.TVA508ComponentManager.ManageData
 0001:0000DD2C       VA508AccessibilityManager.TVA508ComponentManager.ManageInstructions
 0001:0000DD34       VA508AccessibilityManager.TVA508ComponentManager.ManageItemInstructions
 0001:0000DD3C       VA508AccessibilityManager.TVA508ComponentManager.ManageState
 0001:0000DD44       VA508AccessibilityManager.TVA508ComponentManager.ManageValue
 0001:0000DD4C       VA508AccessibilityManager.TVA508ComponentManager.MonitorForItemChange
 0001:0000DD54       VA508AccessibilityManager.TVA508ComponentManager.MonitorForStateChange
 0001:0000DD5C       VA508AccessibilityManager.TVA508ComponentManager.Redirect
 0001:0000DD64       VA508AccessibilityManager.TVA508ComponentManager.RedirectsComponent
 0001:0000DD6C       VA508AccessibilityManager.TVA508ManagedComponentClass.Create
 0001:0000DDB8       VA508AccessibilityManager.TVA508SilentComponent.GetComponentName
 0001:0000DDD8       VA508AccessibilityManager.TVA508SilentComponent.GetInstructions
 0001:0000DDF8       VA508AccessibilityManager.TVA508SilentComponent.GetState
 0001:0000DE18       VA508AccessibilityManager.TVA508SilentComponent.GetValue
 0001:0000DE38       VA508AccessibilityManager.TVA508ComponentAccessibility.Create
 0001:0000DE88       VA508AccessibilityManager.TVA508ComponentAccessibility.SetComponent
 0001:0000E020       VA508AccessibilityManager.InitializeComponentHelper
 0001:0000E1A8       VA508AccessibilityManager.TComponentHelper.InitializeComponentManager
 0001:0000E22C       VA508AccessibilityManager.TComponentHelper.ClearRedirect
 0001:0000E23C       VA508AccessibilityManager.TComponentHelper.Create
 0001:0000E270       VA508AccessibilityManager.TComponentHelper.Destroy
 0001:0000E2CC       VA508AccessibilityManager.TComponentHelper.GetCaption
 0001:0000E36C       VA508AccessibilityManager.TComponentHelper.GetComponentName
 0001:0000E400       VA508AccessibilityManager.TComponentHelper.GetData
 0001:0000E4A4       VA508AccessibilityManager.TComponentHelper.GetInstructions
 0001:0000E538       VA508AccessibilityManager.TComponentHelper.GetItem
 0001:0000E5A0       VA508AccessibilityManager.TComponentHelper.GetItemInstructions
 0001:0000E634       VA508AccessibilityManager.TComponentHelper.GetState
 0001:0000E6E4       VA508AccessibilityManager.TComponentHelper.GetValue
 0001:0000E760       VA508AccessibilityManager.TComponentHelper.ManageComponentName
 0001:0000E7AC       VA508AccessibilityManager.TComponentHelper.ManageData
 0001:0000E7DC       VA508AccessibilityManager.TComponentHelper.ManageItemInstructions
 0001:0000E828       VA508AccessibilityManager.TComponentHelper.ManageValue
 0001:0000E86C       VA508AccessibilityManager.TComponentHelper.ManageCaption
 0001:0000E8B8       VA508AccessibilityManager.TComponentHelper.MonitorForItemChange
 0001:0000E8FC       VA508AccessibilityManager.TComponentHelper.MonitorForStateChange
 0001:0000E958       VA508AccessibilityManager.TComponentHelper.Redirect
 0001:0000E970       VA508AccessibilityManager.TComponentHelper.StandardComponent
 0001:0000E984       VA508AccessibilityManager.TVA508StaticText.CMFontChanged
 0001:0000E998       VA508AccessibilityManager.TVA508StaticText.CMTextChanged
 0001:0000E9AC       VA508AccessibilityManager.TVA508StaticText.Create
 0001:0000EA38       VA508AccessibilityManager.TVA508StaticText.DeleteChain
 0001:0000EAD4       VA508AccessibilityManager.TVA508StaticText.Destroy
 0001:0000EB10       VA508AccessibilityManager.TVA508StaticText.DoEnter
 0001:0000EB3C       VA508AccessibilityManager.TVA508StaticText.DoExit
 0001:0000EB68       VA508AccessibilityManager.TVA508StaticText.GetAlignment
 0001:0000EB78       VA508AccessibilityManager.TVA508StaticText.GetLabelCaption
 0001:0000EB90       VA508AccessibilityManager.TVA508StaticText.GetRootName
 0001:0000EBA4       VA508AccessibilityManager.TVA508StaticText.GetShowAccelChar
 0001:0000EBB4       VA508AccessibilityManager.TVA508StaticText.InvalidateAll
 0001:0000EBE4       VA508AccessibilityManager.TVA508StaticText.Notification
 0001:0000EC24       VA508AccessibilityManager.Init
 0001:0000EC78       VA508AccessibilityManager.InitDrawBorder
 0001:0000ED18       VA508AccessibilityManager.DrawTop
 0001:0000ED78       VA508AccessibilityManager.DrawBottom
 0001:0000EE70       VA508AccessibilityManager.TVA508StaticText.Paint
 0001:0000EE9C       VA508AccessibilityManager.TVA508StaticText.SetAlignment
 0001:0000EEA8       VA508AccessibilityManager.TVA508StaticText.SetLabelCaption
 0001:0000EF14       VA508AccessibilityManager.TVA508StaticText.SetRootName
 0001:0000EF98       VA508AccessibilityManager.TVA508StaticText.SetNextLabel
 0001:0000EFDC       VA508AccessibilityManager.TVA508StaticText.SetParent
 0001:0000F034       VA508AccessibilityManager.TVA508StaticText.SetShowAccelChar
 0001:0000F040       VA508AccessibilityManager.TVA508StaticText.UpdateSize
 0001:0000F0D0       VA508AccessibilityManager.TVA508ChainedLabel.Notification
 0001:0000F11C       VA508AccessibilityManager.Init
 0001:0000F170       VA508AccessibilityManager.DrawText
 0001:0000F1EC       VA508AccessibilityManager.InitDrawBorder
 0001:0000F2BC       VA508AccessibilityManager.DrawPartials
 0001:0000F358       VA508AccessibilityManager.DrawTop
 0001:0000F3E8       VA508AccessibilityManager.DrawSides
 0001:0000F448       VA508AccessibilityManager.DrawBottom
 0001:0000F4F4       VA508AccessibilityManager.TVA508ChainedLabel.Paint
 0001:0000F560       VA508AccessibilityManager.TVA508ChainedLabel.SetNextLabel
 0001:0000F5B4       VA508AccessibilityManager..TComplexDataItem
 0001:0000F614       VA508AccessibilityManager.TComplexDataItem.Create
 0001:0000F66C       VA508AccessibilityManager.TComplexDataItem.Destroy
 0001:0000F6A0       VA508AccessibilityManager.TVA508ComplexComponentManager.AddSubControl
 0001:0000F734       VA508AccessibilityManager.TVA508ComplexComponentManager.RemoveSubControl
 0001:0000F79C       VA508AccessibilityManager.TVA508ComplexComponentManager.ClearSubControls
 0001:0000F814       VA508AccessibilityManager.TVA508ComplexComponentManager.Create
 0001:0000F890       VA508AccessibilityManager.TVA508ComplexComponentManager.Destroy
 0001:0000F8D8       VA508AccessibilityManager.TVA508ComplexComponentManager.GetSubComponentList
 0001:0000F928       VA508AccessibilityManager.TVA508ComplexComponentManager.GetSubControl
 0001:0000F950       VA508AccessibilityManager.TVA508ComplexComponentManager.IndexOfComponentItem
 0001:0000F988       VA508AccessibilityManager.TVA508ComplexComponentManager.IndexOfSubComponentXRef
 0001:0000F9C0       VA508AccessibilityManager.TVA508ComplexComponentManager.ComponentNotifyEvent
 0001:0000FA0C       VA508AccessibilityManager.TVA508ComplexComponentManager.SubComponentNotifyEvent
 0001:0000FA64       VA508AccessibilityManager.TVA508ComplexComponentManager.SubControlCount
 0001:0000FAD0       VA508AccessibilityManager.Finalization
 0001:0000FE3C       VA508AccessibilityPE..TVA508AccessibilityManager4PE
 0001:0000FF1C       VA508AccessibilityPE..TVA508AccessibilityPropertyMapper
 0001:00010080       VA508AccessibilityPE..TVA508NestedPropertyEditor
 0001:00010188       VA508AccessibilityPE..TVA508CollectionPropertyEditor
 0001:0001028C       VA508AccessibilityPE..TVA508AccessibilityLabelPropertyEditor
 0001:000103A4       VA508AccessibilityPE..TVA508AccessibilityPropertyPropertyEditor
 0001:000104B4       VA508AccessibilityPE..TVA508AccessibilityComponentPropertyEditor
 0001:000105D4       VA508AccessibilityPE.GetAccessibilityManager
 0001:00010684       VA508AccessibilityPE.AllComponentsHaveSameManager
 0001:000106D8       VA508AccessibilityPE.GetStringPropertyNames
 0001:000107B4       VA508AccessibilityPE.QVal
 0001:00010828       VA508AccessibilityPE.StripQVal
 0001:000108A8       VA508AccessibilityPE.TVA508AccessibilityPropertyMapper.GetAttributes
 0001:000108D4       VA508AccessibilityPE.TVA508AccessibilityPropertyMapper.GetProperties
 0001:000109D4       VA508AccessibilityPE.TVA508NestedPropertyEditor.AllEqual
 0001:00010BA8       VA508AccessibilityPE.TVA508NestedPropertyEditor.Create
 0001:00010C3C       VA508AccessibilityPE.TVA508NestedPropertyEditor.Edit
 0001:00010C9C       VA508AccessibilityPE.TVA508NestedPropertyEditor.GetAttributes
 0001:00010CDC       VA508AccessibilityPE.TVA508NestedPropertyEditor.GetEditLimit
 0001:00010CFC       VA508AccessibilityPE.TVA508NestedPropertyEditor.GetName
 0001:00010D10       VA508AccessibilityPE.TVA508NestedPropertyEditor.GetValue
 0001:00010E9C       VA508AccessibilityPE.TVA508NestedPropertyEditor.GetValues
 0001:000110C0       VA508AccessibilityPE.TVA508NestedPropertyEditor.SetValue
 0001:00011248       VA508AccessibilityPE.TVA508CollectionPropertyEditor.GetColOptions
 0001:00011254       VA508AccessibilityPE.TVA508AccessibilityLabelPropertyEditor.GetAttributes
 0001:00011260       VA508AccessibilityPE.TVA508AccessibilityLabelPropertyEditor.GetManager
 0001:00011280       VA508AccessibilityPE.TVA508AccessibilityLabelPropertyEditor.GetProperties
 0001:00011288       VA508AccessibilityPE.TVA508AccessibilityLabelPropertyEditor.GetValue
 0001:0001131C       VA508AccessibilityPE.TVA508AccessibilityLabelPropertyEditor.GetValues
 0001:000113D8       VA508AccessibilityPE.TVA508AccessibilityLabelPropertyEditor.SetValue
 0001:00011428       VA508AccessibilityPE.TVA508AccessibilityPropertyPropertyEditor.AllEqual
 0001:000114D0       VA508AccessibilityPE.TVA508AccessibilityPropertyPropertyEditor.GetAttributes
 0001:000114DC       VA508AccessibilityPE.TVA508AccessibilityPropertyPropertyEditor.GetEditLimit
 0001:000114E4       VA508AccessibilityPE.TVA508AccessibilityPropertyPropertyEditor.GetManager
 0001:00011504       VA508AccessibilityPE.TVA508AccessibilityPropertyPropertyEditor.GetRootComponent
 0001:0001151C       VA508AccessibilityPE.TVA508AccessibilityPropertyPropertyEditor.GetValue
 0001:000115B0       VA508AccessibilityPE.TVA508AccessibilityPropertyPropertyEditor.GetValues
 0001:00011718       VA508AccessibilityPE.TVA508AccessibilityPropertyPropertyEditor.SetValue
 0001:00011768       VA508AccessibilityPE.TVA508AccessibilityComponentPropertyEditor.GetAttributes
 0001:00011774       VA508AccessibilityPE.Register
 0001:000118A4       VA508AccessibilityPE.Finalization
 0001:000118D4       VA508AccessibilityCompileInfo..TfrmProgress
 0001:00011C44       VA508AccessibilityCompileInfo.Hookup
 0001:00011CE4       VA508AccessibilityCompileInfo.StartMonitor
 0001:00011D6C       VA508AccessibilityCompileInfo.StopMonitor
 0001:00011D80       VA508AccessibilityCompileInfo.Update508Monitor
 0001:00011F14       VA508AccessibilityCompileInfo.TfrmProgress.btnReleaseClick
 0001:00011F44       VA508AccessibilityCompileInfo.TfrmProgress.FormCreate
 0001:00011F88       VA508AccessibilityCompileInfo.Finalization
 0001:000120F0       VA508AccessibilityCompiler..TVA508Compiler
 0001:00012188       VA508AccessibilityCompiler.Register
 0001:00012234       VA508AccessibilityCompiler.Unregister
 0001:000122D0       VA508AccessibilityCompiler.DLLUnload
 0001:000122E8       VA508AccessibilityCompiler.HaveMessageServices
 0001:0001231C       VA508AccessibilityCompiler.GetPluralStr
 0001:00012348       VA508AccessibilityCompiler.ShowErrorMessage
 0001:000123E4       VA508AccessibilityCompiler.Do508Scan
 0001:000126F0       VA508AccessibilityCompiler.TVA508Compiler.BeforeCompile
 0001:0001271C       VA508AccessibilityCompiler.TVA508Compiler.BeforeCompile
 0001:00012720       VA508AccessibilityCompiler.TVA508Compiler.AfterCompile
 0001:00012724       VA508AccessibilityCompiler.TVA508Compiler.AfterCompile
 0001:00012730       VA508AccessibilityCompiler.TVA508Compiler.AfterCompile
 0001:00012744       VA508AccessibilityCompiler.TVA508Compiler.CompileNA
 0001:00012758       VA508AccessibilityCompiler.TVA508Compiler.Create
 0001:000127A8       VA508AccessibilityCompiler.TVA508Compiler.Destroy
 0001:000127D8       VA508AccessibilityCompiler.TVA508Compiler.StopCompile
 0001:000127E0       VA508AccessibilityCompiler.TVA508Compiler.startMessages
 0001:00012838       VA508AccessibilityCompiler.MessageOK
 0001:0001294C       VA508AccessibilityCompiler.TVA508Compiler.stopMessages
 0001:00012ABC       VA508AccessibilityCompiler.TVA508Compiler.UpdateMonitor
 0001:00012B3C       VA508AccessibilityCompiler.TVA508Compiler.error
 0001:00012BF0       VA508AccessibilityCompiler.TVA508Compiler.warning
 0001:00012CA4       VA508AccessibilityCompiler.TVA508Compiler.msg
 0001:00012CF8       VA508AccessibilityCompiler.TVA508Compiler.FileNotification
 0001:00012D40       VA508AccessibilityCompiler.TVA508Compiler.infoMessage
 0001:00012E00       VA508AccessibilityCompiler.IncCacheIndexes
 0001:00012E58       VA508AccessibilityCompiler.SetCacheSize
 0001:00012EA4       VA508AccessibilityCompiler.Add2Cache
 0001:00012F18       VA508AccessibilityCompiler.GetDFMFileName
 0001:00012FA4       VA508AccessibilityCompiler.ValidObjectLine
 0001:000130C8       VA508AccessibilityCompiler.ValidateDFM
 0001:00013168       VA508AccessibilityCompiler.GetComponentName
 0001:00013214       VA508AccessibilityCompiler.ClearWarningList
 0001:00013288       VA508AccessibilityCompiler.GetWarningList
 0001:000132F0       VA508AccessibilityCompiler.GetManagerInfo
 0001:0001363C       VA508AccessibilityCompiler.ReportComponentWarnings
 0001:00013754       VA508AccessibilityCompiler.InitCache
 0001:000139C8       VA508AccessibilityCompiler.FileLoaded
 0001:00013B50       VA508AccessibilityCompiler.DFMSuccessfullyLoaded
 0001:00013C28       VA508AccessibilityCompiler.ScanForErrors
 0001:00013DCC       VA508AccessibilityCompiler.ScanFormFiles
 0001:00013EA0       VA508AccessibilityCompiler.OpenEditor
 0001:00013F38       VA508AccessibilityCompiler.CloseEditor
 0001:00013FC0       VA508AccessibilityCompiler.AttemptAutoFix
 0001:000144B0       VA508AccessibilityCompiler.IsFileReadOnly
 0001:00014500       VA508AccessibilityCompiler.HandleInheritenceProblems
 0001:000149FC       VA508AccessibilityCompiler.CloseModules
 0001:00014BA0       VA508AccessibilityCompiler.LoadCacheFile
 0001:00014E84       VA508AccessibilityCompiler.SaveCacheFile
 0001:0001502C       VA508AccessibilityCompiler.CreateResources
 0001:0001522C       VA508AccessibilityCompiler.DestroyResources
 0001:00015310       VA508AccessibilityCompiler.Init
 0001:00015364       VA508AccessibilityCompiler.TVA508Compiler.ScanFor508Errors
 0001:0001545C       VA508AccessibilityCompiler.Finalization
 0001:000154F4       VA508ImageListLabelerPE..TfrmImageListEditor
 0001:00015710       VA508ImageListLabelerPE..TVA508ImageListItemsProperty
 0001:00015814       VA508ImageListLabelerPE..TVA508ImageListComponentEditor
 0001:000158E4       VA508ImageListLabelerPE..TVA508ImageListComponentProperty
 0001:000159F4       VA508ImageListLabelerPE..TVA508LabelerImageListProperty
 0001:00015AFC       VA508ImageListLabelerPE..TVA508LabelerRemoteLabelerProperty
 0001:00015C0C       VA508ImageListLabelerPE.Register
 0001:00015CDC       VA508ImageListLabelerPE.TfrmImageListEditor.Create
 0001:00015D40       VA508ImageListLabelerPE.TVA508ImageListItemsProperty.GetAttributes
 0001:00015D80       VA508ImageListLabelerPE.TVA508ImageListItemsProperty.GetEditorClass
 0001:00015D88       VA508ImageListLabelerPE.TfrmImageListEditor.Destroy
 0001:00015DD8       VA508ImageListLabelerPE.TfrmImageListEditor.ImageDataChanged
 0001:00015DE0       VA508ImageListLabelerPE.TfrmImageListEditor.ItemChange
 0001:00015E2C       VA508ImageListLabelerPE.TfrmImageListEditor.IterateItems
 0001:00015EF0       VA508ImageListLabelerPE.TfrmImageListEditor.GetImageList
 0001:00015F20       VA508ImageListLabelerPE.TfrmImageListEditor.GetSize
 0001:00015F50       VA508ImageListLabelerPE.TfrmImageListEditor.RedrawImages
 0001:000161C0       VA508ImageListLabelerPE.TfrmImageListEditor.UpdateImages
 0001:000162C0       VA508ImageListLabelerPE.TVA508ImageListComponentEditor.Edit
 0001:0001633C       VA508ImageListLabelerPE.TVA508ImageListComponentEditor.ExecuteVerb
 0001:0001634C       VA508ImageListLabelerPE.TVA508ImageListComponentEditor.GetVerb
 0001:0001639C       VA508ImageListLabelerPE.TVA508ImageListComponentEditor.GetVerbCount
 0001:000163A4       VA508ImageListLabelerPE.TVA508ImageListComponentProperty.FilterValues
 0001:0001648C       VA508ImageListLabelerPE.TVA508ImageListComponentProperty.GetValue
 0001:00016538       VA508ImageListLabelerPE.TVA508ImageListComponentProperty.GetValues
 0001:0001656C       VA508ImageListLabelerPE.TVA508ImageListComponentProperty.SetValue
 0001:000165E8       VA508ImageListLabelerPE.TVA508LabelerImageListProperty.GetAttributes
 0001:0001661C       VA508ImageListLabelerPE.TVA508LabelerRemoteLabelerProperty.FilterValues
 0001:0001664C       VA508ImageListLabelerPE.TVA508LabelerRemoteLabelerProperty.GetValues
 0001:00016680       VA508ImageListLabelerPE.Finalization
 0001:00016BB8       .VA508Access2006.@GetPackageInfoTable
 0001:00016BC0       .VA508Access2006.@PackageLoad
 0001:00016BCC       .VA508Access2006.@PackageUnload
 0002:00000010       Windows.Windows
 0002:000000CC       VA508AccessibilityConst.VA508AccessibilityConst
 0002:0000010C       MSAAConstants.MSAAConstants
 0002:0000011C       oleacc2.oleacc2
 0002:00000124       VA508MSAASupport.VA508MSAASupport
 0002:00000138       VA508AccessibilityRouter.VA508AccessibilityRouter
 0002:0000015C       VA508ScreenReaderDLLLinker.VA508ScreenReaderDLLLinker
 0002:000001A4       VA508DelphiCompatibility.VA508DelphiCompatibility
 0002:000001B4       VA508ImageListLabeler.VA508ImageListLabeler
 0002:000001BC       VA508Classes.VA508Classes
 0002:000001C4       VA508AccessibilityManager.VA508AccessibilityManager
 0002:000002A8       VA508AccessibilityPE.VA508AccessibilityPE
 0002:000002B0       VA508AccessibilityCompileInfo.VA508AccessibilityCompileInfo
 0002:000002E0       VA508AccessibilityCompiler.VA508AccessibilityCompiler
 0002:00000310       VA508ImageListLabelerPE.VA508ImageListLabelerPE
 0002:00000318       .VA508Access2006..VA508Access2006
 0003:00000000       SysInit.TlsIndex
 0003:00000004       SysInit.PtrToNil
 0003:00000008       SysInit.Module
 0003:00000020       SysInit.TlsProc
 0003:00000030       MSAAConstants.PROPID_ACC_NAME
 0003:00000040       MSAAConstants.PROPID_ACC_VALUE
 0003:00000050       MSAAConstants.PROPID_ACC_DESCRIPTION
 0003:00000060       MSAAConstants.PROPID_ACC_ROLE
 0003:00000070       MSAAConstants.PROPID_ACC_STATE
 0003:00000080       MSAAConstants.PROPID_ACC_HELP
 0003:00000090       MSAAConstants.PROPID_ACC_KEYBOARDSHORTCUT
 0003:000000A0       MSAAConstants.PROPID_ACC_HELPTOPIC
 0003:000000B0       MSAAConstants.PROPID_ACC_FOCUS
 0003:000000C0       MSAAConstants.PROPID_ACC_SELECTION
 0003:000000D0       MSAAConstants.PROPID_ACC_PARENT
 0003:000000E0       MSAAConstants.PROPID_ACC_NAV_UP
 0003:000000F0       MSAAConstants.PROPID_ACC_NAV_DOWN
 0003:00000100       MSAAConstants.PROPID_ACC_NAV_LEFT
 0003:00000110       MSAAConstants.PROPID_ACC_NAV_RIGHT
 0003:00000120       MSAAConstants.PROPID_ACC_NAV_PREV
 0003:00000130       MSAAConstants.PROPID_ACC_NAV_NEXT
 0003:00000140       MSAAConstants.PROPID_ACC_NAV_FIRSTCHILD
 0003:00000150       MSAAConstants.PROPID_ACC_NAV_LASTCHILD
 0003:00000160       MSAAConstants.PROPID_ACC_ROLEMAP
 0003:00000170       MSAAConstants.PROPID_ACC_VALUEMAP
 0003:00000180       MSAAConstants.PROPID_ACC_STATEMAP
 0003:00000190       MSAAConstants.PROPID_ACC_DESCRIPTIONMAP
 0003:000001A0       MSAAConstants.PROPID_ACC_DODEFAULTACTION
 0003:000001B0       oleacc2.LIBID_Accessibility
 0003:000001C0       oleacc2.IID_IAccessible
 0003:000001D0       oleacc2.IID_IAccessibleHandler
 0003:000001E0       oleacc2.IID_IAccIdentity
 0003:000001F0       oleacc2.IID_IAccPropServer
 0003:00000200       oleacc2.IID_IAccPropServices
 0003:00000210       oleacc2.CLASS_CAccPropServices
 0003:00000220       VA508MSAASupport.VA508ImageListLabelerClasses
 0003:00000228       VA508MSAASupport.uShutDown
 0003:0000022C       VA508MSAASupport.Events
 0003:00000230       VA508MSAASupport.AccPropServices
 0003:00000234       VA508MSAASupport.AccServicesCount
 0003:00000238       VA508AccessibilityRouter.ActiveScreenReader
 0003:0000023C       VA508AccessibilityRouter.MasterScreenReader
 0003:00000240       VA508AccessibilityRouter.uNonDialogClassNames
 0003:00000244       VA508AccessibilityRouter.SaveInitProc
 0003:00000248       VA508AccessibilityRouter.Need2RegisterData
 0003:0000024C       VA508AccessibilityRouter.OK2RegisterData
 0003:00000250       VA508AccessibilityRouter.CheckScreenReaderSystemActive
 0003:00000254       VA508AccessibilityRouter.uScreenReaderSystemActive
 0003:00000258       VA508AccessibilityRouter.uPostScreenReaderActivationTimer
 0003:0000025C       VA508ScreenReaderDLLLinker.SRSpeakText
 0003:00000260       VA508ScreenReaderDLLLinker.SRIsRunning
 0003:00000264       VA508ScreenReaderDLLLinker.SRRegisterCustomBehavior
 0003:00000268       VA508ScreenReaderDLLLinker.SRComponentData
 0003:0000026C       VA508ScreenReaderDLLLinker.SRConfigChangePending
 0003:00000270       VA508ScreenReaderDLLLinker.ValidSRFiles
 0003:00000274       VA508ScreenReaderDLLLinker.ExecuteFind
 0003:00000278       VA508ScreenReaderDLLLinker.DoInitialize
 0003:0000027C       VA508ScreenReaderDLLLinker.InitializeResult
 0003:00000280       VA508ScreenReaderDLLLinker.SRInitialize
 0003:00000284       VA508ScreenReaderDLLLinker.SRShutDown
 0003:00000288       VA508ScreenReaderDLLLinker.DLLHandle
 0003:0000028C       VA508AccessibilityManager.ControlsWithDefaultPropertySettings
 0003:000002BC       VA508AccessibilityManager.NewComponentData
 0003:000002D4       VA508AccessibilityManager.MasterPropertyList
 0003:000002D8       VA508AccessibilityManager.GlobalRegistry
 0003:000002DC       VA508AccessibilityManager.AltHandleClasses
 0003:000002E0       VA508AccessibilityManager.ManagedClasses
 0003:000002E4       VA508AccessibilityManager.ComplexClasses
 0003:000002E8       VA508AccessibilityManager.MSAAQueryClasses
 0003:000002EC       VA508AccessibilityManager.CanCheckEvent
 0003:000002F0       VA508AccessibilityCompileInfo.frmProgress
 0003:000002F4       VA508AccessibilityCompiler.NotifierIndex
 0003:000002F8       VA508AccessibilityCompiler.NotifierRegistered
 0004:00000000       SysInit.ModuleIsLib
 0004:00000001       SysInit.ModuleIsPackage
 0004:00000004       SysInit.HInstance
 0004:00000008       SysInit.DllProc
 0004:0000000C       SysInit.tlsBuffer
 0004:00000010       Windows..3
 0004:00000014       Windows.HtmlHelpModule
 0004:00000018       VA508AccessibilityConst..1
 0004:0000001C       MSAAConstants..1
 0004:00000020       oleacc2..2
 0004:00000024       VA508MSAASupport..1
 0004:00000028       VA508MSAASupport.NamePropIDs
 0004:00000038       VA508MSAASupport.uNotifier
 0004:0000003C       VA508AccessibilityRouter..2
 0004:00000040       VA508ScreenReaderDLLLinker..1
 0004:00000044       VA508DelphiCompatibility..2
 0004:00000048       VA508ImageListLabeler..6
 0004:0000004C       VA508Classes..5
 0004:00000050       VA508AccessibilityManager..21
 0004:00000054       VA508AccessibilityManager.TVAGlobalComponentRegistry.FActive
 0004:00000058       VA508AccessibilityManager.TVAGlobalComponentRegistry.FGetMsgHookHandle
 0004:0000005C       VA508AccessibilityPE..8
 0004:00000060       VA508AccessibilityCompileInfo..2
 0004:00000064       VA508AccessibilityCompileInfo.uProjectText
 0004:00000068       VA508AccessibilityCompileInfo.uStopProc
 0004:00000070       VA508AccessibilityCompileInfo.uLastUpdate
 0004:00000078       VA508AccessibilityCompileInfo.uStartTime
 0004:00000080       VA508AccessibilityCompiler..2
 0004:00000084       VA508AccessibilityCompiler.SaveDllProc
 0004:00000088       VA508AccessibilityCompiler.MessageService
 0004:0000008C       VA508ImageListLabelerPE..7
 0005:00000000       SysInit.TlsLast


Line numbers for VA508AccessibilityConst(VA508AccessibilityConst.pas) segment .itext

    81 0002:000000CC

Line numbers for MSAAConstants(MSAAConstants.pas) segment .itext

   175 0002:0000010C

Line numbers for oleacc2(oleacc2.pas) segment .text

   261 0001:00001188   262 0001:0000119E   263 0001:000011BA   266 0001:000011EC
   267 0001:00001207   268 0001:00001230

Line numbers for oleacc2(oleacc2.pas) segment .itext

   270 0002:0000011C

Line numbers for VA508MSAASupport(VA508MSAASupport.pas) segment .text

   111 0001:0000163C   112 0001:0000165B   114 0001:0000167A   115 0001:00001687
   116 0001:00001695   117 0001:0000169B   119 0001:000016B5   122 0001:000016C5
   130 0001:000016E8   131 0001:00001703   133 0001:0000170C   134 0001:00001726
   135 0001:00001736   136 0001:0000173D   137 0001:00001742   139 0001:0000175B
   140 0001:00001761   144 0001:00001784   145 0001:0000178A   147 0001:00001793
   148 0001:0000179D   150 0001:000017A7   154 0001:000017A8   155 0001:000017AF
   157 0001:000017B8   158 0001:000017BF   160 0001:000017C4   166 0001:000017C8
   167 0001:000017EC   169 0001:000017F5   170 0001:00001806   172 0001:0000180B
   174 0001:0000181F   175 0001:00001838   176 0001:0000183D   177 0001:00001849
   172 0001:0000184A   178 0001:0000184D   179 0001:00001854   180 0001:0000185D
   187 0001:00001884   188 0001:000018A3   189 0001:000018B0   190 0001:000018B8
   191 0001:000018C6   192 0001:000018D3   193 0001:000018E1   195 0001:000018E7
   196 0001:00001906   197 0001:00001913   199 0001:0000191F   201 0001:0000193E
   203 0001:0000194E   210 0001:00001974   211 0001:00001990   212 0001:00001999
   213 0001:0000199D   214 0001:000019AA   215 0001:000019B8   217 0001:000019BE
   218 0001:000019CA   219 0001:000019DF   220 0001:000019EB   223 0001:00001A05
   225 0001:00001A15   231 0001:00001A40   232 0001:00001A5F   233 0001:00001A6C
   234 0001:00001A74   235 0001:00001A82   236 0001:00001A8F   237 0001:00001A9D
   239 0001:00001AA3   240 0001:00001AC2   241 0001:00001ACF   243 0001:00001ADB
   245 0001:00001AF2   247 0001:00001B02   253 0001:00001B28   254 0001:00001B47
   255 0001:00001B50   256 0001:00001B54   257 0001:00001B61   258 0001:00001B6F
   260 0001:00001B75   261 0001:00001B81   262 0001:00001B8B   263 0001:00001B97
   266 0001:00001BB1   268 0001:00001BC1   274 0001:00001BE4   275 0001:00001C03
   276 0001:00001C10   277 0001:00001C18   278 0001:00001C26   279 0001:00001C33
   280 0001:00001C41   282 0001:00001C47   283 0001:00001C66   284 0001:00001C73
   286 0001:00001C7F   288 0001:00001C96   290 0001:00001CA6   296 0001:00001CCC
   297 0001:00001CEB   298 0001:00001CF4   299 0001:00001CF8   300 0001:00001D05
   301 0001:00001D13   303 0001:00001D19   304 0001:00001D25   305 0001:00001D2F
   306 0001:00001D3B   309 0001:00001D55   311 0001:00001D65   320 0001:00001D88
   321 0001:00001D93   322 0001:00001DA2   324 0001:00001DA6   325 0001:00001DB4
   326 0001:00001DC0   329 0001:00001DCC   330 0001:00001DD8   331 0001:00001DDF
   332 0001:00001DE8   338 0001:00001DF0   339 0001:00001DF6   340 0001:00001DFF
   342 0001:00001E03   343 0001:00001E0F   344 0001:00001E12   346 0001:00001E1C
   347 0001:00001E25   353 0001:00001E28   354 0001:00001E2E   355 0001:00001E37
   357 0001:00001E3B   358 0001:00001E47   359 0001:00001E4A   361 0001:00001E54
   362 0001:00001E5D   365 0001:00001E60   366 0001:00001E67   367 0001:00001E7C
   370 0001:00001E80   371 0001:00001E83   377 0001:00001E9E   380 0001:00001ED4
   383 0001:00001ED8   384 0001:00001EED   385 0001:00001EF2   386 0001:00001EF5
   387 0001:00001F04   388 0001:00001F0D   390 0001:00001F16   391 0001:00001F1D
   394 0001:00001F38   395 0001:00001F43   396 0001:00001F4A   397 0001:00001F52
   398 0001:00001F57   399 0001:00001F63   404 0001:00001F74   405 0001:00001F78
   407 0001:00001F87   408 0001:00001F9C   410 0001:00001FA0   412 0001:00001FCA
   415 0001:00001FD0   417 0001:00001FD4   421 0001:00001FD8   422 0001:00001FDE
   429 0001:00001FE0   430 0001:00001FE8   432 0001:00001FF6   434 0001:0000200F
   435 0001:00002019   438 0001:00002029   439 0001:0000202B   442 0001:0000202D
   430 0001:0000202E   443 0001:00002031   444 0001:00002034   450 0001:0000203C
   451 0001:00002044   453 0001:00002052   455 0001:0000206B   456 0001:00002075
   458 0001:0000207C   459 0001:0000207E   462 0001:00002080   451 0001:00002081
   463 0001:00002084   464 0001:00002087   468 0001:0000208C   469 0001:0000208F
   483 0001:00002090   484 0001:000020D0   485 0001:000020D7   487 0001:000020E2
   489 0001:000020E7   490 0001:000020EC   491 0001:000020F8   493 0001:00002101
   485 0001:00002104   494 0001:00002107   500 0001:00002148   501 0001:00002159
   502 0001:00002160   504 0001:00002174   506 0001:00002193   507 0001:000021A3
   509 0001:000021B5   510 0001:000021CF   513 0001:000021D1   502 0001:000021D2
   514 0001:000021D5   523 0001:000021DC   524 0001:000021FC   525 0001:00002205
   526 0001:0000220B   527 0001:0000221A   529 0001:00002222   530 0001:0000222A
   532 0001:00002232   533 0001:00002241   534 0001:00002253   535 0001:0000225E
   537 0001:00002280   538 0001:000022A0   540 0001:000022A7   542 0001:000022B8
   544 0001:000022F1   555 0001:0000231C   556 0001:0000233C   557 0001:00002345
   558 0001:0000235C   559 0001:00002364   560 0001:0000236C   561 0001:00002380
   562 0001:00002389   563 0001:0000239B   564 0001:000023A4   566 0001:000023AA
   567 0001:000023AE   568 0001:000023D0   569 0001:000023D7   570 0001:000023E8
   572 0001:0000241B   574 0001:0000242B   575 0001:00002443   576 0001:0000247D
   577 0001:00002488   578 0001:0000248E   579 0001:0000249B   581 0001:000024C8
   583 0001:000024D5   585 0001:000024F3   587 0001:0000250E   588 0001:00002549
   589 0001:00002559   591 0001:0000256A   592 0001:00002572   593 0001:00002578
   594 0001:00002585   596 0001:000025C2   583 0001:000025C5   599 0001:000025CE
   605 0001:00002638   606 0001:0000263E   608 0001:00002652   610 0001:00002671
   611 0001:00002681   613 0001:0000269B   606 0001:0000269C   614 0001:0000269F
   620 0001:000026A4   621 0001:000026AA   623 0001:000026BE   625 0001:000026DD
   626 0001:000026ED   628 0001:00002703   621 0001:00002704   629 0001:00002707
   632 0001:0000270C   633 0001:0000270F   634 0001:0000271A   635 0001:00002726
   636 0001:00002731   639 0001:00002734   640 0001:00002737   641 0001:00002742
   642 0001:0000274C   644 0001:00002750   645 0001:00002784   646 0001:0000278D
   648 0001:000027B1   650 0001:000027C5   652 0001:000027CB   654 0001:000027D4
   655 0001:000027DB   656 0001:000027E2   659 0001:000027F2   663 0001:000027FE
   664 0001:00002805   666 0001:00002821   667 0001:00002828   668 0001:00002830
   670 0001:00002839   671 0001:00002859   673 0001:00002871   674 0001:0000287C
   675 0001:00002884   677 0001:0000288D   679 0001:00002894   681 0001:0000289A
   682 0001:000028A0   683 0001:000028AD   685 0001:000028B8   690 0001:000028C5
   691 0001:000028CC   692 0001:000028CE   696 0001:00002910   697 0001:0000291F
   698 0001:0000292C   704 0001:00002930   705 0001:00002936   706 0001:00002943
   707 0001:00002947   708 0001:00002951   709 0001:0000295A   714 0001:00002960
   715 0001:00002963   716 0001:0000296A   717 0001:0000296E   718 0001:00002978
   719 0001:00002981   724 0001:00002984   725 0001:00002987   726 0001:0000298E
   727 0001:00002992   728 0001:0000299C   729 0001:000029A5   735 0001:000029A8
   736 0001:000029AD   738 0001:000029B1   740 0001:000029BB   741 0001:000029C8
   738 0001:000029CB   742 0001:000029CE   744 0001:000029E4   747 0001:00002A1C
   748 0001:00002A23   749 0001:00002A3A   753 0001:00002A40   754 0001:00002A4F
   759 0001:00002A50   760 0001:00002A54   761 0001:00002A5D   762 0001:00002A63
   764 0001:00002A67   765 0001:00002A6E   767 0001:00002A75   773 0001:00002A78
   774 0001:00002A80   776 0001:00002A8E   778 0001:00002AA7   779 0001:00002AB1
   781 0001:00002AB8   782 0001:00002ABA   785 0001:00002ABC   774 0001:00002ABD
   786 0001:00002AC0   787 0001:00002AC3   792 0001:00002AE4   794 0001:00002B02

Line numbers for VA508MSAASupport(VA508MSAASupport.pas) segment .itext

   789 0002:00000124   791 0002:00000137

Line numbers for VA508AccessibilityRouter(..\VA\VA508Accessibility\VA508AccessibilityRouter.pas) segment .text

   118 0001:00002DE8   119 0001:00002DF1   120 0001:00002DF7   121 0001:00002DFE
   123 0001:00002E07   124 0001:00002E0E   126 0001:00002E17   129 0001:00002E21
   133 0001:00002E24   135 0001:00002E2D   137 0001:00002E36   138 0001:00002E47
   141 0001:00002E53   143 0001:00002E64   144 0001:00002E69   149 0001:00002E6C
   150 0001:00002E88   152 0001:00002E95   153 0001:00002E9F   155 0001:00002EAE
   156 0001:00002EC3   157 0001:00002ECE   158 0001:00002F00   159 0001:00002F1D
   163 0001:00002F37   170 0001:00003168   171 0001:0000316E   174 0001:00003181
   175 0001:0000318D   176 0001:0000319C   177 0001:000031A3   178 0001:000031A9
   179 0001:000031B9   181 0001:000031C5   183 0001:000031CC   184 0001:000031E4
   186 0001:000031ED   188 0001:000031F4   189 0001:00003223   190 0001:0000322D
   192 0001:00003236   194 0001:0000323F   195 0001:0000324A   197 0001:00003256
   201 0001:0000325F   202 0001:00003266   206 0001:0000326B   207 0001:00003272
   212 0001:000032AC   213 0001:000032D4   215 0001:000032E1   216 0001:00003307
   217 0001:00003310   218 0001:00003321   219 0001:00003332   220 0001:0000333F
   221 0001:00003348   224 0001:0000337C   229 0001:000033B0   230 0001:000033B3
   231 0001:000033BE   234 0001:000033C4   235 0001:000033D6   236 0001:000033E5
   237 0001:000033F4   238 0001:000033F8   239 0001:000033FC   240 0001:0000340B
   250 0001:00003428   251 0001:00003448   252 0001:00003450   254 0001:00003464
   255 0001:00003479   256 0001:00003484   257 0001:00003496   259 0001:000034A5
   261 0001:000034C8   262 0001:000034EF   263 0001:00003509   264 0001:0000351E
   265 0001:00003534   266 0001:0000353A   267 0001:00003550   270 0001:000035A0
   271 0001:000035AB   272 0001:000035B0   273 0001:000035B8   274 0001:000035C0
   275 0001:000035C8   276 0001:000035D4   284 0001:000035E4   285 0001:00003605
   286 0001:00003613   287 0001:0000361B   288 0001:00003631   289 0001:00003643
   291 0001:000036BC   292 0001:000036F0   293 0001:00003732   296 0001:0000375C
   297 0001:0000377B   298 0001:000037A7   299 0001:000037AE   305 0001:000037D0
   306 0001:000037D4   307 0001:000037DD   308 0001:000037E9   309 0001:000037F3
   310 0001:000037F7   313 0001:000037FC   314 0001:0000381C   315 0001:0000382C
   316 0001:0000383C   325 0001:00003860   326 0001:00003898   327 0001:000038AB
   328 0001:000038B9   330 0001:000038C1   331 0001:000038CF   332 0001:000038D7
   333 0001:000038DC   334 0001:000038E5   336 0001:000038E9   337 0001:000038F7
   338 0001:000038FD   340 0001:00003901   341 0001:0000390B   343 0001:0000393A
   347 0001:00003949   351 0001:00003974   352 0001:000039A1   353 0001:000039B2
   354 0001:000039C3   360 0001:000039EC   361 0001:00003A00   362 0001:00003A0B
   363 0001:00003A18   364 0001:00003A1B   381 0001:00003A40   382 0001:00003A62
   383 0001:00003A6C   384 0001:00003A7A   385 0001:00003A89   386 0001:00003A97
   388 0001:00003AB5   390 0001:00003AD1   391 0001:00003AFA   392 0001:00003B08
   393 0001:00003B1F   394 0001:00003B2D   395 0001:00003B3B   396 0001:00003B43
   397 0001:00003B51   398 0001:00003B5C   399 0001:00003B68   400 0001:00003B6C
   401 0001:00003B89   402 0001:00003B8D   404 0001:00003BAE   406 0001:00003BC0
   409 0001:00003BDD   411 0001:00003BED   388 0001:00003BF0   414 0001:00003C06
   417 0001:00003C23   419 0001:00003C35   421 0001:00003C78   422 0001:00003C96
   423 0001:00003CA3   424 0001:00003CAA   425 0001:00003CB8   427 0001:00003CC5
   428 0001:00003CD3   429 0001:00003CDA   430 0001:00003CEA   432 0001:00003CFF
   433 0001:00003D0F   434 0001:00003D25   435 0001:00003D44   430 0001:00003D45
   436 0001:00003D48   438 0001:00003D6A   442 0001:00003D7B   444 0001:00003D8F
   446 0001:00003D9E   456 0001:00003DC8   457 0001:00003DF6   458 0001:00003E14
   459 0001:00003E27   460 0001:00003E58   461 0001:00003E7E   463 0001:00003EF8
   464 0001:00003F32   465 0001:00003F3F   466 0001:00003F50   467 0001:00003F62
   468 0001:00003F71   469 0001:00003F80   472 0001:00003FD8   473 0001:00004005
   474 0001:00004016   477 0001:00004040   478 0001:00004043   479 0001:00004047
   481 0001:0000404B   482 0001:00004052   484 0001:00004056   487 0001:00004058
   488 0001:0000405B   489 0001:00004066   492 0001:0000406C   493 0001:00004091
   494 0001:000040A1   495 0001:000040AF   497 0001:000040DC   499 0001:000040EB
   518 0001:00004110   519 0001:0000411C   521 0001:00004129   522 0001:00004137
   523 0001:0000413E   526 0001:0000414F   527 0001:00004155   528 0001:0000415A
   529 0001:0000415F   530 0001:00004164   531 0001:00004169   532 0001:0000416E
   533 0001:00004173   534 0001:00004178   535 0001:0000417B   538 0001:0000417F
   539 0001:0000419D   540 0001:000041A4   542 0001:000041CC   536 0001:000041CD
   544 0001:000041DE   547 0001:00004226   550 0001:00004237   556 0001:00004240
   557 0001:00004243   560 0001:00004248   561 0001:00004259   564 0001:00004270
   565 0001:00004281   569 0001:00004298   571 0001:000042B9   574 0001:000042E0
   575 0001:000042F1   579 0001:00004308   580 0001:0000430B   583 0001:00004310
   584 0001:00004321   591 0001:00004338   592 0001:0000435A   593 0001:00004364
   594 0001:0000436D   595 0001:00004377   596 0001:00004380   598 0001:0000438A

Line numbers for VA508AccessibilityRouter(..\VA\VA508Accessibility\VA508AccessibilityRouter.pas) segment .itext

   586 0002:00000138   587 0002:00000141   588 0002:0000014D   590 0002:00000158

Line numbers for VA508ScreenReaderDLLLinker(VA508ScreenReaderDLLLinker.pas) segment .text

    79 0001:000043A4    81 0001:000043A7    82 0001:000043A9   100 0001:000043B0
   112 0001:000043B4   114 0001:000043B7   135 0001:000043BC   137 0001:000043BF
   149 0001:000043C4   151 0001:000043C7   163 0001:000043CC   165 0001:000043CF
   166 0001:000043D1   180 0001:000043D8   181 0001:000043DA   190 0001:000043DC
   191 0001:000043E3   192 0001:000043EA   193 0001:000043F1   194 0001:000043F8
   195 0001:000043FF   196 0001:00004406   197 0001:0000440D   198 0001:00004414
   199 0001:0000441B   203 0001:0000441C   205 0001:00004425   206 0001:0000443B
   207 0001:00004442   208 0001:0000444B   210 0001:00004450   211 0001:00004457
   215 0001:00004458   217 0001:00004461   218 0001:00004467   219 0001:00004472
   220 0001:00004479   222 0001:0000447E   227 0001:00004480   228 0001:00004496
   229 0001:000044A5   230 0001:000044B8   232 0001:000044C5   233 0001:000044DA
   234 0001:000044EF   235 0001:00004504   236 0001:00004519   237 0001:0000452E
   238 0001:00004543   239 0001:00004558   241 0001:0000455F   244 0001:000045EC
   247 0001:000045F6   248 0001:0000460B   250 0001:0000460F   251 0001:00004611
   253 0001:00004620   254 0001:0000462B   256 0001:00004632   264 0001:00004638
   265 0001:0000463B   266 0001:00004650   267 0001:0000465E   269 0001:0000466B
   270 0001:00004680   271 0001:0000468E   273 0001:0000469B   274 0001:000046B0
   275 0001:000046BE   277 0001:000046CB   278 0001:000046E0   279 0001:000046EE
   281 0001:000046F7   282 0001:0000470C   283 0001:0000471A   285 0001:00004723
   286 0001:00004738   287 0001:00004746   289 0001:0000474F   290 0001:00004764
   297 0001:00004772   298 0001:00004777   303 0001:000047E8   304 0001:00004805
   305 0001:0000480C   306 0001:0000481A   308 0001:00004827   309 0001:0000482E
   310 0001:0000483B   312 0001:0000483F   313 0001:00004852   315 0001:0000485B
   316 0001:00004869   317 0001:00004873   318 0001:0000487C   320 0001:00004896
   321 0001:000048A1   326 0001:000048B0   333 0001:000048D0   334 0001:0000491D
   335 0001:00004927   336 0001:00004932   337 0001:00004936   338 0001:00004943
   339 0001:0000496E   340 0001:0000497C   342 0001:00004980   344 0001:000049AE
   346 0001:000049D2   340 0001:000049DF   349 0001:000049F0   351 0001:00004A03
   353 0001:00004A84   354 0001:00004A9C   356 0001:00004AA5   357 0001:00004AAE
   358 0001:00004ABF   359 0001:00004AD3   360 0001:00004AD9   361 0001:00004AED
   362 0001:00004AF3   363 0001:00004B19   365 0001:00004B20   369 0001:00004B48
   370 0001:00004B4D   371 0001:00004B5C   377 0001:00004B60   378 0001:00004B69
   379 0001:00004B6B   380 0001:00004B70   381 0001:00004B82   383 0001:00004B96
   384 0001:00004B9D   385 0001:00004BB0   386 0001:00004BB4   388 0001:00004BBA
   389 0001:00004BC5   391 0001:00004BCC   381 0001:00004BCD   392 0001:00004BD0
   397 0001:00004BEC   398 0001:00004C0A   399 0001:00004C13   401 0001:00004C1D

Line numbers for VA508ScreenReaderDLLLinker(VA508ScreenReaderDLLLinker.pas) segment .itext

   394 0002:0000015C   396 0002:00000163

Line numbers for VA508DelphiCompatibility(..\VA\VA508Accessibility\VA508DelphiCompatibility.pas) segment .text

    85 0001:000050F4    86 0001:00005111    87 0001:00005117    88 0001:00005122
    89 0001:00005138    90 0001:00005158    93 0001:00005190    94 0001:000051AD
    95 0001:000051B3    96 0001:000051C0    97 0001:000051CD    99 0001:00005208
   100 0001:00005229   101 0001:0000522B   102 0001:00005233   103 0001:00005237
   104 0001:00005252   105 0001:00005262   107 0001:0000527A   108 0001:0000528F
   110 0001:00005295   112 0001:000052AC   114 0001:000052B2   115 0001:000052C0
   116 0001:000052C6   117 0001:000052D3   120 0001:000052DD   122 0001:000052EA
   124 0001:00005306   126 0001:0000531C   127 0001:00005333   128 0001:00005345
   130 0001:00005358   131 0001:00005360   132 0001:00005366   133 0001:00005373
   135 0001:0000537D   122 0001:0000537E   137 0001:00005383   140 0001:000053B8
   141 0001:000053DC   142 0001:000053EB   143 0001:000053FC   144 0001:0000540D
   145 0001:0000541E   146 0001:0000542F   147 0001:00005440   149 0001:00005451
   152 0001:00005458   153 0001:00005484   156 0001:000054B6   173 0001:000054C5
   185 0001:0000551C   186 0001:00005522   191 0001:00005524   192 0001:00005527
   193 0001:0000552B   195 0001:00005539   196 0001:00005545   199 0001:0000557C
   200 0001:0000557F   201 0001:00005583   203 0001:00005591   204 0001:0000559D
   207 0001:000055F0   208 0001:000055F3   209 0001:000055FF   210 0001:0000560D
   211 0001:0000561B   212 0001:00005629   214 0001:00005630   218 0001:00005674
   219 0001:00005686   220 0001:0000569F   223 0001:000056C0   224 0001:000056C6
   225 0001:000056D4   228 0001:000056D8   229 0001:000056DE   230 0001:000056EF
   233 0001:000056F4   234 0001:000056FA   235 0001:00005708   240 0001:0000570C
   241 0001:0000571E   242 0001:00005737   248 0001:00005758   249 0001:0000575B
   250 0001:0000575D   251 0001:00005766   253 0001:00005774   254 0001:00005780
   261 0001:000057C0   262 0001:000057C5   263 0001:000057C7   264 0001:000057CE
   265 0001:000057D2   267 0001:000057DB   268 0001:000057EB   273 0001:000057F0
   274 0001:000057F1   275 0001:000057F3   277 0001:00005801   278 0001:0000580F
   280 0001:00005813   283 0001:00005818   284 0001:00005822   289 0001:00005824
   290 0001:00005826   291 0001:00005828   292 0001:0000584A   298 0001:00005850
   299 0001:00005855   300 0001:00005857   301 0001:0000585E   302 0001:00005862
   304 0001:0000586B   305 0001:0000587B   313 0001:00005880   316 0001:00005892
   319 0001:000058AB   336 0001:000058CC   337 0001:000058CF   340 0001:000058DB
   414 0001:000058F0   415 0001:000058F6   431 0001:000058FD   432 0001:00005909
   433 0001:00005912   434 0001:0000591E   435 0001:0000592A   474 0001:0000597C
   475 0001:0000597E   476 0001:00005987   477 0001:00005990   478 0001:00005999
   479 0001:000059A0   480 0001:000059A5   481 0001:000059AC   498 0001:000059B0
   499 0001:000059D8   500 0001:000059DA   501 0001:000059E0   502 0001:000059E9
   506 0001:000059FB   507 0001:00005A04   509 0001:00005A2D   510 0001:00005A35
   511 0001:00005A3B   512 0001:00005A79   520 0001:00005A93   521 0001:00005A9C
   523 0001:00005AC4   524 0001:00005ACC   525 0001:00005AD2   526 0001:00005B0F
   532 0001:00005B29   533 0001:00005B50   534 0001:00005B56   535 0001:00005B63
   538 0001:00005B7B   539 0001:00005B88   545 0001:00005C18   546 0001:00005C2A
   547 0001:00005C43   550 0001:00005C64   551 0001:00005C67   552 0001:00005C73
   556 0001:00005C84   557 0001:00005C87   558 0001:00005C93   564 0001:00005CA8
   565 0001:00005CBF   566 0001:00005CC1   567 0001:00005CCA   568 0001:00005CD0
   570 0001:00005CD4   571 0001:00005CF4   568 0001:00005CFA   573 0001:00005CFE
   578 0001:00005D2C   579 0001:00005D3E   580 0001:00005D57   583 0001:00005D78
   584 0001:00005D7E   585 0001:00005D87   590 0001:00005D8C   591 0001:00005D9E
   592 0001:00005DB7   595 0001:00005DD8   596 0001:00005DDE   597 0001:00005DE7

Line numbers for VA508DelphiCompatibility(..\VA\VA508Accessibility\VA508DelphiCompatibility.pas) segment .itext

   599 0002:000001A4   600 0002:000001AD   602 0002:000001B2

Line numbers for VA508ImageListLabeler(VA508ImageListLabeler.pas) segment .text

   135 0001:0000638C   136 0001:0000638D   137 0001:000063A3   143 0001:000063B8
   144 0001:000063BF   147 0001:000063C0   148 0001:000063DA   149 0001:000063E5
   150 0001:000063E9   151 0001:000063F8   152 0001:00006409   153 0001:0000641A
   154 0001:0000642B   155 0001:00006435   156 0001:00006442   159 0001:00006464
   160 0001:0000646F   161 0001:00006477   162 0001:0000647F   163 0001:00006488
   164 0001:00006491   165 0001:00006499   166 0001:000064A1   167 0001:000064A9
   168 0001:000064B1   169 0001:000064BD   175 0001:000064CC   176 0001:000064E9
   177 0001:000064EF   179 0001:000064F5   180 0001:000064FC   182 0001:00006508
   186 0001:00006514   187 0001:0000651B   189 0001:00006527   191 0001:00006531
   192 0001:0000653D   194 0001:00006557   195 0001:0000655F   200 0001:00006584
   201 0001:0000658D   203 0001:0000659B   204 0001:000065A2   205 0001:000065A9
   206 0001:000065B7   208 0001:000065CC   209 0001:000065DE   211 0001:000065E7
   206 0001:000065E8   212 0001:000065EB   213 0001:000065F4   215 0001:0000660D
   218 0001:0000661C   221 0001:00006624   222 0001:00006625   223 0001:0000662B
   224 0001:00006631   225 0001:00006638   226 0001:00006642   229 0001:00006644
   230 0001:00006647   231 0001:0000664E   232 0001:00006652   233 0001:0000665E
   234 0001:00006667   243 0001:0000666C   244 0001:0000667B   245 0001:000066A2
   246 0001:000066C1   247 0001:000066D0   248 0001:000066DE   250 0001:000066F3
   251 0001:00006702   253 0001:00006709   254 0001:00006713   255 0001:00006721
   256 0001:00006725   259 0001:00006729   260 0001:00006735   262 0001:00006739
   263 0001:0000673D   265 0001:00006757   248 0001:00006758   266 0001:0000675B
   268 0001:0000676C   269 0001:00006779   270 0001:00006787   266 0001:00006788
   272 0001:00006798   273 0001:000067A3   275 0001:000067B4   279 0001:000067BC
   280 0001:000067C5   281 0001:000067D0   282 0001:000067DA   283 0001:000067E3
   289 0001:000067E8   290 0001:00006809   291 0001:00006816   293 0001:0000681F
   294 0001:00006827   296 0001:0000682C   298 0001:00006838   299 0001:0000683F
   300 0001:0000684D   302 0001:00006857   303 0001:00006862   305 0001:00006870
   306 0001:00006878   308 0001:00006880   309 0001:00006888   310 0001:00006899
   312 0001:000068AC   313 0001:000068C3   315 0001:000068D8   316 0001:000068E9
   317 0001:000068ED   318 0001:000068FA   313 0001:000068FB   319 0001:000068FE
   321 0001:00006913   322 0001:0000691C   323 0001:0000692E   319 0001:0000692F
   326 0001:00006932   327 0001:0000693C   329 0001:00006955   332 0001:00006964
   335 0001:00006988   336 0001:0000698E   338 0001:00006993   340 0001:00006997
   341 0001:0000699F   343 0001:000069A8   345 0001:000069AB   350 0001:000069B0
   351 0001:000069B3   352 0001:000069BA   355 0001:000069BC   356 0001:000069D1
   357 0001:000069E0   358 0001:000069EF   359 0001:000069FE   360 0001:00006A01
   361 0001:00006A12   362 0001:00006A1E   363 0001:00006A2B   364 0001:00006A38
   365 0001:00006A45   368 0001:00006AAC   369 0001:00006AB7   370 0001:00006ABE
   371 0001:00006AC6   372 0001:00006ACE   373 0001:00006AD6   374 0001:00006AE2
   377 0001:00006AF0   378 0001:00006AF9   379 0001:00006B05   383 0001:00006B0C
   384 0001:00006B14   390 0001:00006B18   391 0001:00006B1E   393 0001:00006B35
   395 0001:00006B4B   397 0001:00006B59   396 0001:00006B63   398 0001:00006B70
   399 0001:00006B7E   393 0001:00006B81   401 0001:00006B84   402 0001:00006B87
   405 0001:00006B8C   406 0001:00006B92   407 0001:00006B9B   410 0001:00006BA0
   411 0001:00006BAD   412 0001:00006BBF   413 0001:00006BD0   414 0001:00006BDF
   416 0001:00006BED   418 0001:00006C02   419 0001:00006C11   421 0001:00006C1F
   423 0001:00006C34   424 0001:00006C49   426 0001:00006C50   432 0001:00006C64
   433 0001:00006C6A   435 0001:00006C70   436 0001:00006C74   438 0001:00006C7F
   440 0001:00006C95   441 0001:00006CA1   444 0001:00006CA9   443 0001:00006CB3
   445 0001:00006CC0   447 0001:00006CCE   438 0001:00006CD1   450 0001:00006CD4
   451 0001:00006CD7   455 0001:00006CDC   456 0001:00006CDF   460 0001:00006CE0
   461 0001:00006CE3   462 0001:00006CEA   463 0001:00006CF1   466 0001:00006CF4
   467 0001:00006CF7   468 0001:00006CFF   469 0001:00006D07   470 0001:00006D0B
   474 0001:00006D10   475 0001:00006D15   478 0001:00006D18   479 0001:00006D1B
   480 0001:00006D22   481 0001:00006D29   488 0001:00006D2C   489 0001:00006D32
   492 0001:00006D43   493 0001:00006D4D   496 0001:00006D5B   497 0001:00006D64
   500 0001:00006D68   501 0001:00006D6B   502 0001:00006D77   505 0001:00006D7C
   506 0001:00006D8E   507 0001:00006D97   508 0001:00006D9E   509 0001:00006DA5
   512 0001:00006DC0   513 0001:00006DCB   514 0001:00006DD7   517 0001:00006DE8
   518 0001:00006DEC   519 0001:00006E00   523 0001:00006E04   524 0001:00006E0C
   527 0001:00006E10   528 0001:00006E16   530 0001:00006E22   531 0001:00006E2C
   533 0001:00006E3E   538 0001:00006E44   539 0001:00006E4B   540 0001:00006E58
   543 0001:00006E5D   544 0001:00006E60   545 0001:00006E6D   547 0001:00006E76
   548 0001:00006E8D   550 0001:00006E92   551 0001:00006E99   553 0001:00006E9E
   554 0001:00006EA5   558 0001:00006EB7   562 0001:00006EBC   564 0001:00006ECA
   566 0001:00006ECD   571 0001:00006ED0   572 0001:00006ED3   573 0001:00006EDA
   576 0001:00006EDC   577 0001:00006EF1   578 0001:00006F00   579 0001:00006F03
   582 0001:00006F20   583 0001:00006F2B   584 0001:00006F32   585 0001:00006F3E
   589 0001:00006F4C   590 0001:00006F52   591 0001:00006F5B   595 0001:00006F60
   596 0001:00006F63   600 0001:00006F64   601 0001:00006F67   602 0001:00006F6E
   603 0001:00006F78   608 0001:00006F7C   609 0001:00006F81   616 0001:00006F84
   617 0001:00006F8A   619 0001:00006F9B   620 0001:00006F9D   623 0001:00006FA8
   624 0001:00006FB1   629 0001:00006FB4   630 0001:00006FC2   631 0001:00006FC9
   634 0001:00006FCC   635 0001:00006FD7   636 0001:00006FE0   637 0001:00006FE6
   638 0001:00006FEE   639 0001:00006FFA   642 0001:00007008   643 0001:0000702B
   644 0001:0000704B   646 0001:00007084   647 0001:0000708D   656 0001:000070CC
   657 0001:000070D2   658 0001:000070D9   659 0001:000070E3   660 0001:000070F4
   661 0001:00007101   662 0001:00007105   664 0001:00007119   666 0001:0000711B
   667 0001:00007123   668 0001:0000712E   669 0001:00007136   672 0001:0000713B
   674 0001:0000714C   676 0001:0000714E   677 0001:00007156   678 0001:00007161
   679 0001:00007169   680 0001:00007174   681 0001:0000717C   684 0001:0000717F
   687 0001:00007198   688 0001:0000719C   689 0001:000071B0   695 0001:000071B4
   696 0001:000071DA   698 0001:000071E3   700 0001:000071E7   701 0001:000071EB
   703 0001:000071F8   705 0001:00007205   706 0001:00007209   708 0001:0000720B
   701 0001:0000720E   709 0001:00007213   710 0001:00007219   712 0001:0000725B
   713 0001:00007268   714 0001:00007270   716 0001:00007274   717 0001:0000727A
   718 0001:00007291   720 0001:0000729B   721 0001:0000729E   723 0001:000072AC

Line numbers for VA508ImageListLabeler(VA508ImageListLabeler.pas) segment .itext

   725 0002:000001B4

Line numbers for VA508Classes(VA508Classes.pas) segment .text

   112 0001:0000777C   113 0001:00007788   114 0001:0000778D   116 0001:0000779E
   117 0001:000077A9   119 0001:000077BF   120 0001:000077C4   122 0001:000077C6
   124 0001:000077DD   125 0001:000077E2   127 0001:000077E4   114 0001:000077E5
   128 0001:000077E8   139 0001:000077F4   140 0001:00007800   142 0001:00007820
   143 0001:00007822   145 0001:00007837   147 0001:00007853   148 0001:00007855
   150 0001:00007857   143 0001:00007858   151 0001:0000785B   153 0001:0000785F
   157 0001:000078B8   159 0001:00007910   160 0001:0000793B   161 0001:00007941
   162 0001:0000797A   164 0001:0000798C   167 0001:00007994   169 0001:000079F9
   171 0001:00007A0B   172 0001:00007A18   173 0001:00007A1C   174 0001:00007A29
   176 0001:00007A7B   177 0001:00007A81   180 0001:00007A8D   181 0001:00007A9C
   184 0001:00007B15   194 0001:00007C34   195 0001:00007C62   196 0001:00007C6C
   197 0001:00007C72   198 0001:00007C7A   199 0001:00007C8C   201 0001:00007CA3
   202 0001:00007CB2   203 0001:00007CC0   204 0001:00007CC4   205 0001:00007CC8
   207 0001:00007CD9   209 0001:00007CF1   210 0001:00007CF5   213 0001:00007D0A
   215 0001:00007D22   216 0001:00007D26   218 0001:00007D39   205 0001:00007D3A
   219 0001:00007D3D   220 0001:00007D45   221 0001:00007D4B   222 0001:00007D69
   224 0001:00007D6F   225 0001:00007D75   226 0001:00007D82   228 0001:00007DB1
   230 0001:00007DB7   233 0001:00007E29   236 0001:00007E39   241 0001:00007ED8
   242 0001:00007EDB   243 0001:00007EE2   247 0001:00007EE4   248 0001:00007EEB
   251 0001:00007EEC   252 0001:00007F05   253 0001:00007F0F   254 0001:00007F24
   262 0001:00007F48   263 0001:00007F7E   265 0001:00007F8C   266 0001:00007F9A
   267 0001:00007FA5   268 0001:00007FAF   269 0001:00007FBA   270 0001:00007FBF
   271 0001:00007FC6   272 0001:00007FCD   273 0001:00007FD4   275 0001:00007FDE
   280 0001:00008010   281 0001:0000803E   282 0001:0000804A   283 0001:00008054
   284 0001:0000805C   285 0001:0000805F   289 0001:00008088   290 0001:00008090
   293 0001:00008094   294 0001:000080A6   295 0001:000080B5   298 0001:000080D0
   299 0001:000080DB   300 0001:000080E3   301 0001:000080EF   307 0001:00008100
   308 0001:00008129   309 0001:00008134   310 0001:00008139   312 0001:00008147
   314 0001:0000815D   315 0001:00008169   317 0001:0000816B   310 0001:0000816C
   318 0001:0000816F   322 0001:0000819C   323 0001:000081A2   326 0001:000081A4
   327 0001:000081AA   328 0001:000081B4   335 0001:000081B8   336 0001:000081E9
   337 0001:000081F5   338 0001:000081FC   339 0001:00008208   340 0001:00008213
   341 0001:00008216   342 0001:00008232   344 0001:00008258   347 0001:0000827B
   350 0001:000082C4   356 0001:0000834C   358 0001:00008353   367 0001:000086B4
   368 0001:000086BA   369 0001:000086BE   370 0001:000086C5   372 0001:000086CD
   373 0001:000086D1   375 0001:000086D7   376 0001:000086E3   377 0001:000086E9
   378 0001:000086F2   379 0001:000086F8   382 0001:00008705   383 0001:00008713
   384 0001:00008728   385 0001:0000872B   386 0001:0000873D   388 0001:00008743
   390 0001:0000874E   393 0001:00008761   394 0001:00008767   396 0001:0000876D
   399 0001:00008773   402 0001:00008779   405 0001:0000877F   407 0001:00008790
   408 0001:0000879C   410 0001:000087A8   426 0001:000087B4   427 0001:000087E9
   428 0001:00008802   429 0001:0000880D   430 0001:00008814   431 0001:0000881B
   433 0001:00008822   434 0001:0000882C   435 0001:00008831   436 0001:00008843
   437 0001:0000884B   438 0001:00008853   439 0001:00008859   441 0001:00008869
   442 0001:00008889   445 0001:00008899   446 0001:000088AD   447 0001:000088B9
   448 0001:000088C5   443 0001:000088CD   451 0001:000088F7   453 0001:000088FD
   454 0001:00008905   457 0001:0000890E   458 0001:0000891E   460 0001:00008931
   461 0001:0000893F   465 0001:00008974   466 0001:00008977   470 0001:00008978
   471 0001:0000897C   476 0001:00008980   477 0001:00008983   479 0001:0000898F
   480 0001:00008991   482 0001:00008993   486 0001:000089A7   488 0001:000089AB
   490 0001:000089AD   495 0001:000089B0   496 0001:000089B4   497 0001:000089B6
   499 0001:000089C2   501 0001:000089D7   502 0001:000089E1   504 0001:000089E5
   506 0001:000089FA   507 0001:00008A04   508 0001:00008A0E   511 0001:00008A10
   512 0001:00008A1D   513 0001:00008A21   514 0001:00008A2B   516 0001:00008A5C
   517 0001:00008A76   519 0001:00008A85   520 0001:00008AAC   521 0001:00008ABC
   523 0001:00008ACC   524 0001:00008ADB   525 0001:00008B0A   526 0001:00008B2E
   527 0001:00008B3A   528 0001:00008B55   530 0001:00008B61   531 0001:00008B6D
   532 0001:00008B88   534 0001:00008B94   535 0001:00008BA0   536 0001:00008BBB
   538 0001:00008BC7   539 0001:00008BD3   541 0001:00008BDC   542 0001:00008BED
   545 0001:00008BF6   547 0001:00008BFF   550 0001:00008C2C   551 0001:00008C3D
   553 0001:00008C44   556 0001:00008C4D   558 0001:00008C54

Line numbers for VA508Classes(VA508Classes.pas) segment .itext

   561 0002:000001BC

Line numbers for VA508AccessibilityManager(..\VA\VA508Accessibility\VA508AccessibilityManager.pas) segment .text

   531 0001:00009FB4   532 0001:00009FC6   533 0001:00009FD7   537 0001:00009FD8
   538 0001:00009FE1   539 0001:00009FF2   540 0001:00009FF7   544 0001:00009FF8
   545 0001:0000A001   546 0001:0000A00B   547 0001:0000A014   548 0001:0000A01E
   549 0001:0000A027   550 0001:0000A031   551 0001:0000A03A   552 0001:0000A044
   553 0001:0000A04D   554 0001:0000A057   555 0001:0000A060   556 0001:0000A06A
   561 0001:0000A06C   562 0001:0000A072   565 0001:0000A083   566 0001:0000A089
   567 0001:0000A08F   568 0001:0000A095   569 0001:0000A0A0   570 0001:0000A0AB
   571 0001:0000A0B2   573 0001:0000A0BC   574 0001:0000A0C5   577 0001:0000A0C8
   578 0001:0000A0DA   579 0001:0000A0E3   582 0001:0000A100   583 0001:0000A10B
   584 0001:0000A11A   585 0001:0000A120   586 0001:0000A128   587 0001:0000A134
   590 0001:0000A144   591 0001:0000A169   593 0001:0000A16F   597 0001:0000A1BD
   598 0001:0000A1DA   601 0001:0000A21C   602 0001:0000A222   603 0001:0000A225
   604 0001:0000A236   605 0001:0000A23A   609 0001:0000A240   610 0001:0000A246
   614 0001:0000A248   615 0001:0000A24B   618 0001:0000A24C   619 0001:0000A252
   623 0001:0000A287   624 0001:0000A296   625 0001:0000A2A1   627 0001:0000A2B1
   630 0001:0000A2BC   631 0001:0000A2D2   633 0001:0000A2D7   634 0001:0000A2DC
   636 0001:0000A2E0   637 0001:0000A2E5   638 0001:0000A2ED   640 0001:0000A2F7
   641 0001:0000A30A   643 0001:0000A327   646 0001:0000A348   647 0001:0000A34B
   649 0001:0000A350   650 0001:0000A355   652 0001:0000A359   653 0001:0000A361
   654 0001:0000A369   657 0001:0000A36D   660 0001:0000A370   661 0001:0000A376
   665 0001:0000A3A8   666 0001:0000A3B2   668 0001:0000A3B8   669 0001:0000A3BD
   670 0001:0000A3C5   673 0001:0000A3C9   676 0001:0000A3CC   677 0001:0000A3D2
   679 0001:0000A3DE   680 0001:0000A3E8   682 0001:0000A3EE   683 0001:0000A3F3
   684 0001:0000A3FB   687 0001:0000A3FF   690 0001:0000A404   691 0001:0000A407
   692 0001:0000A40B   694 0001:0000A411   695 0001:0000A417   698 0001:0000A41D
   699 0001:0000A42F   701 0001:0000A435   702 0001:0000A441   704 0001:0000A445
   709 0001:0000A448   710 0001:0000A44B   711 0001:0000A452   717 0001:0000A454
   718 0001:0000A45D   720 0001:0000A473   721 0001:0000A47C   722 0001:0000A488
   723 0001:0000A493   724 0001:0000A497   726 0001:0000A49C   730 0001:0000A4A0
   731 0001:0000A4B5   732 0001:0000A4C4   733 0001:0000A4C7   734 0001:0000A4D8
   735 0001:0000A4E1   736 0001:0000A4E8   737 0001:0000A4FF   740 0001:0000A51C
   741 0001:0000A527   742 0001:0000A532   743 0001:0000A537   744 0001:0000A53F
   745 0001:0000A54B   750 0001:0000A55C   751 0001:0000A563   758 0001:0000A564
   759 0001:0000A587   760 0001:0000A589   762 0001:0000A58D   763 0001:0000A597
   764 0001:0000A5A5   766 0001:0000A5AB   768 0001:0000A5B1   769 0001:0000A5BA
   770 0001:0000A5C5   774 0001:0000A5D2   776 0001:0000A5DF   780 0001:0000A608
   781 0001:0000A60E   782 0001:0000A617   786 0001:0000A61C   787 0001:0000A61F
   791 0001:0000A620   792 0001:0000A639   793 0001:0000A63D   795 0001:0000A65B
   796 0001:0000A65D   803 0001:0000A684   804 0001:0000A69D   805 0001:0000A6A6
   806 0001:0000A6B2   807 0001:0000A6B6   808 0001:0000A6C0   809 0001:0000A6CB
   811 0001:0000A6CF   812 0001:0000A6D9   814 0001:0000A6E3   819 0001:0000A708
   820 0001:0000A70D   830 0001:0000A710   831 0001:0000A72C   832 0001:0000A735
   833 0001:0000A744   834 0001:0000A74C   835 0001:0000A756   837 0001:0000A765
   838 0001:0000A772   840 0001:0000A77C   845 0001:0000A7A0   846 0001:0000A7B5
   847 0001:0000A7C0   848 0001:0000A7CD   849 0001:0000A7D2   850 0001:0000A7E3
   851 0001:0000A7EA   854 0001:0000A808   855 0001:0000A813   856 0001:0000A81A
   857 0001:0000A821   858 0001:0000A826   859 0001:0000A82C   860 0001:0000A834
   861 0001:0000A840   873 0001:0000A850   874 0001:0000A875   875 0001:0000A87A
   877 0001:0000A8BF   878 0001:0000A8C5   880 0001:0000A8CA   882 0001:0000A8E2
   884 0001:0000A935   885 0001:0000A943   887 0001:0000A945   880 0001:0000A948
   888 0001:0000A94D   890 0001:0000A974   891 0001:0000A99B   892 0001:0000A9BA
   893 0001:0000A9C7   894 0001:0000A9C9   896 0001:0000A9CC   897 0001:0000A9DB
   899 0001:0000A9DF   900 0001:0000A9F3   901 0001:0000AA02   903 0001:0000AA0E
   904 0001:0000AA12   905 0001:0000AA16   906 0001:0000AA18   910 0001:0000AA50
   911 0001:0000AA56   912 0001:0000AA65   916 0001:0000AA68   917 0001:0000AA71
   918 0001:0000AA87   922 0001:0000AA8C   923 0001:0000AA95   924 0001:0000AAAB
   928 0001:0000AAB0   929 0001:0000AAB6   930 0001:0000AAC5   939 0001:0000AAC8
   940 0001:0000AADE   943 0001:0000AB0C   944 0001:0000AB13   945 0001:0000AB15
   946 0001:0000AB1C   947 0001:0000AB2A   949 0001:0000AB3B   950 0001:0000AB4B
   952 0001:0000AB4D   953 0001:0000AB5E   954 0001:0000AB72   956 0001:0000AB84
   957 0001:0000AB86   959 0001:0000AB8C   960 0001:0000AB9D   961 0001:0000ABAA
   962 0001:0000ABAD   965 0001:0000ABBC   966 0001:0000ABBE   963 0001:0000ABD4
   968 0001:0000ABE3   969 0001:0000ABEE   973 0001:0000AC04   974 0001:0000AC07
   981 0001:0000AC08   982 0001:0000AC3A   983 0001:0000AC42   984 0001:0000AC46
   986 0001:0000AC50   987 0001:0000AC60   989 0001:0000AC6E   990 0001:0000AC79
   991 0001:0000AC8A   992 0001:0000AC95   994 0001:0000AC97   984 0001:0000AC9A
   995 0001:0000AC9D  1003 0001:0000ACD0  1004 0001:0000ACED  1006 0001:0000AD08
  1007 0001:0000AD15  1008 0001:0000AD26  1011 0001:0000AD6D  1013 0001:0000AD95
  1015 0001:0000ADA1  1004 0001:0000ADA4  1016 0001:0000ADAB  1018 0001:0000ADF4
  1019 0001:0000AE00  1020 0001:0000AE0D  1021 0001:0000AE18  1024 0001:0000AE1C
  1025 0001:0000AE25  1026 0001:0000AE37  1038 0001:0000AE3C  1039 0001:0000AE66
  1040 0001:0000AE93  1042 0001:0000AE9B  1043 0001:0000AEAA  1044 0001:0000AEB8
  1045 0001:0000AEC4  1046 0001:0000AED7  1047 0001:0000AEE0  1048 0001:0000AEEB
  1049 0001:0000AEF9  1050 0001:0000AF0B  1052 0001:0000AF13  1053 0001:0000AF24
  1054 0001:0000AF33  1055 0001:0000AF3E  1050 0001:0000AF3F  1057 0001:0000AF4F
  1059 0001:0000AF62  1061 0001:0000AF79  1065 0001:0000AFB5  1066 0001:0000AFC4
  1067 0001:0000AFC7  1076 0001:0000B004  1077 0001:0000B025  1079 0001:0000B028
  1080 0001:0000B036  1082 0001:0000B03A  1083 0001:0000B04D  1084 0001:0000B05B
  1086 0001:0000B069  1089 0001:0000B079  1091 0001:0000B07B  1092 0001:0000B083
  1093 0001:0000B0A5  1095 0001:0000B0A9  1096 0001:0000B0AB  1100 0001:0000B0E0
  1101 0001:0000B0E6  1102 0001:0000B0F6  1108 0001:0000B0FC  1109 0001:0000B11F
  1110 0001:0000B123  1113 0001:0000B127  1114 0001:0000B132  1116 0001:0000B143
  1125 0001:0000B168  1126 0001:0000B171  1127 0001:0000B178  1129 0001:0000B183
  1131 0001:0000B197  1132 0001:0000B1A4  1133 0001:0000B1B0  1135 0001:0000B1C9
  1136 0001:0000B1D9  1138 0001:0000B1DF  1139 0001:0000B1EB  1140 0001:0000B200
  1142 0001:0000B20B  1143 0001:0000B211  1144 0001:0000B21D  1145 0001:0000B223
  1146 0001:0000B22F  1147 0001:0000B235  1149 0001:0000B240  1129 0001:0000B243
  1150 0001:0000B24A  1151 0001:0000B255  1153 0001:0000B25D  1154 0001:0000B263
  1155 0001:0000B26A  1165 0001:0000B274  1166 0001:0000B282  1167 0001:0000B288
  1170 0001:0000B29A  1171 0001:0000B2AC  1172 0001:0000B2B0  1174 0001:0000B2B5
  1176 0001:0000B2BB  1178 0001:0000B2CC  1180 0001:0000B2E4  1181 0001:0000B2F0
  1182 0001:0000B302  1184 0001:0000B313  1176 0001:0000B314  1186 0001:0000B317
  1188 0001:0000B320  1189 0001:0000B32D  1190 0001:0000B339  1192 0001:0000B357
  1193 0001:0000B35B  1195 0001:0000B368  1196 0001:0000B373  1202 0001:0000B378
  1204 0001:0000B37A  1206 0001:0000B37E  1208 0001:0000B383  1209 0001:0000B385
  1211 0001:0000B388  1204 0001:0000B38B  1213 0001:0000B38F  1216 0001:0000B394
  1217 0001:0000B39A  1218 0001:0000B3A3  1219 0001:0000B3BD  1228 0001:0000B3D0
  1229 0001:0000B3F0  1230 0001:0000B3FB  1231 0001:0000B405  1233 0001:0000B40C
  1234 0001:0000B41E  1235 0001:0000B426  1238 0001:0000B439  1239 0001:0000B441
  1240 0001:0000B44F  1241 0001:0000B45D  1244 0001:0000B46F  1245 0001:0000B47A
  1246 0001:0000B489  1248 0001:0000B491  1249 0001:0000B4A5  1250 0001:0000B4B9
  1251 0001:0000B4C8  1252 0001:0000B4D5  1253 0001:0000B4E4  1254 0001:0000B4F1
  1255 0001:0000B500  1256 0001:0000B50D  1257 0001:0000B51C  1258 0001:0000B529
  1259 0001:0000B538  1242 0001:0000B548  1264 0001:0000B565  1236 0001:0000B575
  1268 0001:0000B592  1270 0001:0000B5A2  1274 0001:0000B630  1275 0001:0000B635
  1282 0001:0000B638  1290 0001:0000B65D  1291 0001:0000B665  1292 0001:0000B673
  1294 0001:0000B692  1295 0001:0000B6A2  1297 0001:0000B6AC  1298 0001:0000B6B3
  1299 0001:0000B6BB  1300 0001:0000B6C9  1302 0001:0000B6F2  1303 0001:0000B6F9
  1305 0001:0000B721  1306 0001:0000B727  1307 0001:0000B742  1308 0001:0000B748
  1309 0001:0000B763  1312 0001:0000B79C  1315 0001:0000B7AC  1292 0001:0000B7AF
  1317 0001:0000B7C5  1319 0001:0000B7D5  1332 0001:0000B864  1333 0001:0000B88D
  1334 0001:0000B895  1336 0001:0000B8A3  1338 0001:0000B8A9  1340 0001:0000B8C5
  1341 0001:0000B8D3  1342 0001:0000B8E4  1344 0001:0000B901  1350 0001:0000B911
  1351 0001:0000B917  1352 0001:0000B924  1353 0001:0000B92A  1356 0001:0000B937
  1357 0001:0000B942  1359 0001:0000B948  1360 0001:0000B956  1361 0001:0000B95A
  1365 0001:0000B975  1369 0001:0000B9BC  1370 0001:0000B9C5  1371 0001:0000B9D8
  1375 0001:0000B9DC  1376 0001:0000B9E5  1377 0001:0000B9F8  1381 0001:0000B9FC
  1382 0001:0000BA05  1383 0001:0000BA18  1387 0001:0000BA1C  1388 0001:0000BA25
  1389 0001:0000BA34  1393 0001:0000BA38  1394 0001:0000BA41  1395 0001:0000BA54
  1407 0001:0000BA58  1408 0001:0000BA60  1409 0001:0000BA6D  1410 0001:0000BA7A
  1412 0001:0000BA8B  1414 0001:0000BAA3  1415 0001:0000BAB2  1416 0001:0000BAD3
  1418 0001:0000BAE3  1410 0001:0000BAE4  1419 0001:0000BAE7  1421 0001:0000BAEC
  1422 0001:0000BAFB  1423 0001:0000BB0A  1424 0001:0000BB18  1425 0001:0000BB45
  1426 0001:0000BB4E  1428 0001:0000BB60  1430 0001:0000BB6E  1432 0001:0000BB75
  1433 0001:0000BB7F  1434 0001:0000BB83  1436 0001:0000BB8C  1439 0001:0000BB98
  1440 0001:0000BB9F  1426 0001:0000BBA0  1441 0001:0000BBA5  1443 0001:0000BBB3
  1444 0001:0000BBC9  1441 0001:0000BBCA  1446 0001:0000BBDA  1448 0001:0000BBEA
  1462 0001:0000BC60  1463 0001:0000BC68  1464 0001:0000BC71  1465 0001:0000BC7A
  1468 0001:0000BC8D  1470 0001:0000BC9D  1471 0001:0000BCA9  1472 0001:0000BCAE
  1468 0001:0000BCAF  1474 0001:0000BCB2  1475 0001:0000BCBE  1476 0001:0000BCC1
  1477 0001:0000BCC4  1478 0001:0000BCD0  1484 0001:0000BCD8  1485 0001:0000BCDD
  1487 0001:0000BCE6  1488 0001:0000BCEF  1491 0001:0000BD02  1493 0001:0000BD12
  1494 0001:0000BD1E  1496 0001:0000BD26  1497 0001:0000BD2D  1499 0001:0000BD2F
  1491 0001:0000BD30  1501 0001:0000BD33  1504 0001:0000BD41  1505 0001:0000BD48
  1511 0001:0000BD4C  1512 0001:0000BD51  1514 0001:0000BD5A  1515 0001:0000BD63
  1518 0001:0000BD76  1520 0001:0000BD86  1521 0001:0000BD92  1523 0001:0000BD9A
  1524 0001:0000BD9E  1525 0001:0000BDA5  1527 0001:0000BDA7  1518 0001:0000BDA8
  1529 0001:0000BDAB  1532 0001:0000BDB9  1533 0001:0000BDC0  1538 0001:0000BDC4
  1539 0001:0000BDCA  1540 0001:0000BDCC  1541 0001:0000BDD5  1543 0001:0000BDE5
  1544 0001:0000BDF3  1545 0001:0000BE01  1541 0001:0000BE02  1546 0001:0000BE05
  1547 0001:0000BE07  1553 0001:0000BE10  1554 0001:0000BE19  1555 0001:0000BE22
  1556 0001:0000BE33  1557 0001:0000BE3A  1559 0001:0000BE3E  1560 0001:0000BE4A
  1561 0001:0000BE4D  1562 0001:0000BE50  1563 0001:0000BE53  1565 0001:0000BE5F
  1569 0001:0000BE64  1570 0001:0000BE6B  1574 0001:0000BE6C  1575 0001:0000BE75
  1602 0001:0000BE78  1603 0001:0000BE7B  1604 0001:0000BEA7  1607 0001:0000BEAC
  1608 0001:0000BEB1  1609 0001:0000BEB3  1610 0001:0000BEBD  1611 0001:0000BEC7
  1612 0001:0000BED4  1613 0001:0000BEEA  1614 0001:0000BEF3  1615 0001:0000BEFE
  1616 0001:0000BF0D  1617 0001:0000BF1A  1618 0001:0000BF1C  1621 0001:0000BF24
  1622 0001:0000BF27  1623 0001:0000BF2F  1624 0001:0000BF37  1625 0001:0000BF3F
  1626 0001:0000BF47  1627 0001:0000BF4F  1628 0001:0000BF57  1629 0001:0000BF5F
  1630 0001:0000BF67  1631 0001:0000BF6F  1632 0001:0000BF76  1635 0001:0000BF78
  1636 0001:0000BF8B  1638 0001:0000BFA6  1639 0001:0000BFC8  1641 0001:0000BFDE
  1642 0001:0000BFF2  1644 0001:0000BFFB  1645 0001:0000C002  1649 0001:0000C013
  1654 0001:0000C034  1655 0001:0000C04D  1657 0001:0000C070  1658 0001:0000C081
  1660 0001:0000C096  1661 0001:0000C0A5  1662 0001:0000C0AC  1664 0001:0000C0B3
  1666 0001:0000C0C2  1667 0001:0000C0E4  1669 0001:0000C0ED  1670 0001:0000C0F4
  1674 0001:0000C0FB  1676 0001:0000C10A  1677 0001:0000C119  1679 0001:0000C129
  1680 0001:0000C131  1681 0001:0000C165  1683 0001:0000C16E  1684 0001:0000C175
  1688 0001:0000C17C  1690 0001:0000C19F  1691 0001:0000C1C1  1692 0001:0000C1D7
  1693 0001:0000C1EB  1695 0001:0000C1F8  1696 0001:0000C209  1697 0001:0000C210
  1698 0001:0000C217  1700 0001:0000C23A  1701 0001:0000C25C  1703 0001:0000C265
  1704 0001:0000C285  1706 0001:0000C29C  1707 0001:0000C2C3  1708 0001:0000C2D4
  1709 0001:0000C2DD  1715 0001:0000C2E4  1716 0001:0000C2ED  1719 0001:0000C2F7
  1722 0001:0000C32C  1723 0001:0000C33F  1725 0001:0000C367  1726 0001:0000C389
  1728 0001:0000C39F  1729 0001:0000C3B3  1731 0001:0000C3BC  1732 0001:0000C3CD
  1736 0001:0000C3D4  1739 0001:0000C3F4  1740 0001:0000C407  1742 0001:0000C41F
  1743 0001:0000C441  1745 0001:0000C44A  1748 0001:0000C451  1751 0001:0000C474
  1752 0001:0000C477  1754 0001:0000C480  1755 0001:0000C48A  1758 0001:0000C4D5
  1760 0001:0000C4D8  1761 0001:0000C4FD  1766 0001:0000C508  1767 0001:0000C51A
  1768 0001:0000C52C  1769 0001:0000C53E  1770 0001:0000C550  1771 0001:0000C562
  1772 0001:0000C574  1799 0001:0000C5A4  1800 0001:0000C5AA  1802 0001:0000C5B3
  1803 0001:0000C5B5  1805 0001:0000C5B7  1806 0001:0000C5C5  1811 0001:0000C622
  1813 0001:0000C629  1815 0001:0000C62D  1817 0001:0000C634  1820 0001:0000C63C
  1821 0001:0000C63F  1823 0001:0000C654  1825 0001:0000C65D  1826 0001:0000C667
  1828 0001:0000C67B  1830 0001:0000C684  1831 0001:0000C68E  1832 0001:0000C6AE
  1834 0001:0000C6C5  1836 0001:0000C6CE  1837 0001:0000C6D8  1839 0001:0000C6EC
  1841 0001:0000C6F5  1842 0001:0000C6FF  1845 0001:0000C722  1848 0001:0000C730
  1849 0001:0000C739  1850 0001:0000C741  1851 0001:0000C74B  1852 0001:0000C755
  1853 0001:0000C75F  1854 0001:0000C769  1855 0001:0000C773  1857 0001:0000C77D
  1858 0001:0000C788  1859 0001:0000C793  1861 0001:0000C79E  1862 0001:0000C7BA
  1865 0001:0000C7BC  1866 0001:0000C7D6  1868 0001:0000C7ED  1869 0001:0000C812
  1872 0001:0000C825  1875 0001:0000C840  1876 0001:0000C865  1877 0001:0000C878
  1878 0001:0000C8A4  1881 0001:0000C8B7  1883 0001:0000C8CE  1884 0001:0000C8F3
  1887 0001:0000C906  1889 0001:0000C91D  1890 0001:0000C942  1893 0001:0000C955
  1895 0001:0000C96C  1896 0001:0000C991  1899 0001:0000C9A4  1901 0001:0000C9BB
  1902 0001:0000C9E0  1904 0001:0000C9F3  1906 0001:0000CA1C  1907 0001:0000CA59
  1908 0001:0000CA66  1910 0001:0000CA71  1911 0001:0000CA87  1914 0001:0000CA90
  1915 0001:0000CA94  1916 0001:0000CAA7  1917 0001:0000CAAB  1920 0001:0000CAB7
  1922 0001:0000CAC6  1924 0001:0000CAD4  1925 0001:0000CAD8  1926 0001:0000CAE3
  1928 0001:0000CAEE  1929 0001:0000CAF0  1930 0001:0000CB02  1931 0001:0000CB31
  1932 0001:0000CB43  1933 0001:0000CB55  1935 0001:0000CB62  1936 0001:0000CB70
  1937 0001:0000CB87  1938 0001:0000CB8B  1940 0001:0000CB9E  1942 0001:0000CBA3
  1944 0001:0000CBBA  1946 0001:0000CBCA  1947 0001:0000CBD6  1951 0001:0000CBDF
  1952 0001:0000CBE7  1955 0001:0000CBEE  1956 0001:0000CBF6  1969 0001:0000CC3C
  1970 0001:0000CC3F  1972 0001:0000CC48  1973 0001:0000CC4F  1974 0001:0000CC5D
  1976 0001:0000CC6C  1977 0001:0000CC6F  1978 0001:0000CC77  1981 0001:0000CC8B
  1985 0001:0000CCA2  1988 0001:0000CCB1  1989 0001:0000CCC8  1992 0001:0000CCCC
  1993 0001:0000CCDF  1994 0001:0000CCEE  1995 0001:0000CCFF  1996 0001:0000CD03
  1997 0001:0000CD0C  1998 0001:0000CD1D  1999 0001:0000CD21  2000 0001:0000CD2A
  2001 0001:0000CD39  2002 0001:0000CD4C  2003 0001:0000CD55  2004 0001:0000CD63
  2005 0001:0000CD70  2006 0001:0000CD83  2007 0001:0000CD9C  2009 0001:0000CDAC
  2010 0001:0000CDB3  2013 0001:0000CDD0  2014 0001:0000CDDB  2015 0001:0000CDDF
  2016 0001:0000CDE6  2017 0001:0000CDF6  2018 0001:0000CE01  2019 0001:0000CE09
  2020 0001:0000CE11  2021 0001:0000CE19  2022 0001:0000CE21  2023 0001:0000CE29
  2024 0001:0000CE35  2027 0001:0000CE44  2028 0001:0000CE4A  2029 0001:0000CE53
  2037 0001:0000CE58  2038 0001:0000CE63  2039 0001:0000CE68  2040 0001:0000CE6C
  2042 0001:0000CE70  2043 0001:0000CE7D  2045 0001:0000CE81  2046 0001:0000CE89
  2047 0001:0000CE8D  2050 0001:0000CE91  2052 0001:0000CE99  2053 0001:0000CE9D
  2055 0001:0000CEA6  2057 0001:0000CEBB  2058 0001:0000CECA  2060 0001:0000CED8
  2061 0001:0000CEDC  2063 0001:0000CEE4  2055 0001:0000CEE7  2065 0001:0000CEEA
  2067 0001:0000CEF0  2068 0001:0000CEFE  2070 0001:0000CF17  2074 0001:0000CF21
  2100 0001:0000CF2C  2101 0001:0000CF4C  2102 0001:0000CF51  2104 0001:0000CF65
  2105 0001:0000CF6F  2106 0001:0000CF7C  2108 0001:0000CF80  2109 0001:0000CF8C
  2110 0001:0000CF92  2112 0001:0000CF9F  2114 0001:0000CFA3  2117 0001:0000CFB0
  2121 0001:0000CFD8  2122 0001:0000CFFB  2123 0001:0000CFFD  2124 0001:0000D005
  2125 0001:0000D00F  2126 0001:0000D01D  2127 0001:0000D03A  2129 0001:0000D065
  2131 0001:0000D072  2132 0001:0000D091  2142 0001:0000D0CC  2143 0001:0000D0E8
  2144 0001:0000D0F2  2145 0001:0000D0FE  2146 0001:0000D10B  2148 0001:0000D10F
  2150 0001:0000D115  2151 0001:0000D124  2155 0001:0000D133  2156 0001:0000D140
  2157 0001:0000D144  2162 0001:0000D150  2163 0001:0000D15A  2164 0001:0000D160
  2166 0001:0000D165  2168 0001:0000D16A  2173 0001:0000D190  2174 0001:0000D193
  2176 0001:0000D1A4  2177 0001:0000D1B0  2179 0001:0000D1B4  2180 0001:0000D1BA
  2182 0001:0000D1C6  2185 0001:0000D1D0  2200 0001:0000D1D4  2201 0001:0000D1DD
  2203 0001:0000D1EA  2204 0001:0000D1F8  2205 0001:0000D1FC  2207 0001:0000D201
  2209 0001:0000D211  2210 0001:0000D21F  2212 0001:0000D225  2213 0001:0000D22B
  2215 0001:0000D238  2219 0001:0000D23C  2220 0001:0000D242  2222 0001:0000D24D
  2224 0001:0000D24F  2226 0001:0000D253  2227 0001:0000D25C  2228 0001:0000D260
  2230 0001:0000D262  2207 0001:0000D263  2231 0001:0000D266  2233 0001:0000D26C
  2205 0001:0000D26F  2235 0001:0000D275  2242 0001:0000D27C  2243 0001:0000D283
  2245 0001:0000D28C  2246 0001:0000D299  2248 0001:0000D2AE  2249 0001:0000D2BD
  2251 0001:0000D2CB  2252 0001:0000D2D4  2253 0001:0000D2E6  2255 0001:0000D2E8
  2246 0001:0000D2EB  2257 0001:0000D2EE  2262 0001:0000D2F4  2263 0001:0000D2F8
  2264 0001:0000D30A  2265 0001:0000D319  2266 0001:0000D328  2267 0001:0000D333
  2268 0001:0000D33D  2269 0001:0000D347  2270 0001:0000D35D  2272 0001:0000D361
  2273 0001:0000D37A  2275 0001:0000D38A  2278 0001:0000D390  2279 0001:0000D3A4
  2280 0001:0000D3C6  2282 0001:0000D3E2  2283 0001:0000D3EC  2284 0001:0000D406
  2286 0001:0000D421  2287 0001:0000D435  2288 0001:0000D44F  2292 0001:0000D462
  2293 0001:0000D47C  2294 0001:0000D48B  2297 0001:0000D495  2299 0001:0000D4B8
  2300 0001:0000D4DE  2301 0001:0000D4ED  2302 0001:0000D4F4  2311 0001:0000D51C
  2312 0001:0000D51F  2313 0001:0000D53D  2315 0001:0000D540  2316 0001:0000D55F
  2317 0001:0000D57B  2318 0001:0000D582  2319 0001:0000D590  2322 0001:0000D5A0
  2323 0001:0000D5AF  2325 0001:0000D5C1  2326 0001:0000D5CC  2327 0001:0000D5DC
  2328 0001:0000D5E9  2330 0001:0000D5F4  2320 0001:0000D5F5  2332 0001:0000D604
  2333 0001:0000D613  2335 0001:0000D62D  2337 0001:0000D63C  2345 0001:0000D660
  2346 0001:0000D67F  2347 0001:0000D694  2348 0001:0000D69B  2349 0001:0000D6A9
  2350 0001:0000D6B6  2351 0001:0000D6C6  2353 0001:0000D6CA  2354 0001:0000D6D9
  2355 0001:0000D6E4  2356 0001:0000D6F1  2357 0001:0000D701  2358 0001:0000D705
  2359 0001:0000D712  2360 0001:0000D722  2361 0001:0000D726  2362 0001:0000D733
  2363 0001:0000D73A  2364 0001:0000D73E  2367 0001:0000D755  2369 0001:0000D764
  2375 0001:0000D790  2376 0001:0000D793  2378 0001:0000D7A4  2379 0001:0000D7B0
  2381 0001:0000D7B4  2382 0001:0000D7BA  2384 0001:0000D7C6  2387 0001:0000D7D0
  2402 0001:0000D7D4  2403 0001:0000D7F0  2404 0001:0000D80E  2405 0001:0000D820
  2407 0001:0000D832  2408 0001:0000D842  2410 0001:0000D846  2412 0001:0000D84F
  2413 0001:0000D859  2414 0001:0000D864  2415 0001:0000D86D  2417 0001:0000D87C
  2418 0001:0000D88C  2421 0001:0000D8A4  2426 0001:0000D8BC  2427 0001:0000D8C4
  2428 0001:0000D8E8  2429 0001:0000D8F8  2434 0001:0000D901  2435 0001:0000D911
  2437 0001:0000D915  2438 0001:0000D926  2439 0001:0000D937  2440 0001:0000D93B
  2441 0001:0000D94A  2444 0001:0000D951  2451 0001:0000D984  2452 0001:0000D9A5
  2453 0001:0000D9A8  2455 0001:0000D9AA  2456 0001:0000D9B4  2457 0001:0000D9C7
  2459 0001:0000D9CC  2460 0001:0000D9D6  2461 0001:0000D9DA  2464 0001:0000D9DE
  2465 0001:0000D9E0  2466 0001:0000D9E4  2471 0001:0000DA0C  2472 0001:0000DA10
  2473 0001:0000DA20  2474 0001:0000DA2E  2476 0001:0000DA44  2477 0001:0000DA50
  2474 0001:0000DA51  2479 0001:0000DA63  2481 0001:0000DA7B  2489 0001:0000DA80
  2490 0001:0000DA9C  2491 0001:0000DAAE  2493 0001:0000DAB6  2494 0001:0000DABD
  2495 0001:0000DAC7  2497 0001:0000DAE2  2498 0001:0000DAEF  2500 0001:0000DB0C
  2501 0001:0000DB1C  2502 0001:0000DB2F  2504 0001:0000DB33  2505 0001:0000DB45
  2507 0001:0000DB49  2508 0001:0000DB54  2509 0001:0000DB65  2511 0001:0000DB69
  2512 0001:0000DB73  2514 0001:0000DB80  2515 0001:0000DB91  2517 0001:0000DB95
  2524 0001:0000DB9F  2495 0001:0000DBA2  2526 0001:0000DBA9  2528 0001:0000DBD4
  2529 0001:0000DBE3  2530 0001:0000DBF0  2531 0001:0000DBFD  2532 0001:0000DC03
  2533 0001:0000DC11  2534 0001:0000DC1D  2535 0001:0000DC21  2537 0001:0000DC2A
  2539 0001:0000DC41  2541 0001:0000DC58  2546 0001:0000DC60  2547 0001:0000DC74
  2548 0001:0000DC7C  2551 0001:0000DC94  2552 0001:0000DC97  2553 0001:0000DC9E
  2557 0001:0000DCA0  2558 0001:0000DCA3  2559 0001:0000DCAA  2562 0001:0000DCAC
  2563 0001:0000DCBD  2564 0001:0000DCC5  2567 0001:0000DCE0  2568 0001:0000DCE3
  2569 0001:0000DCEA  2573 0001:0000DCEC  2574 0001:0000DCEE  2578 0001:0000DCF0
  2579 0001:0000DCF3  2580 0001:0000DCFA  2583 0001:0000DCFC  2584 0001:0000DCFF
  2585 0001:0000DD06  2588 0001:0000DD08  2589 0001:0000DD0B  2590 0001:0000DD12
  2594 0001:0000DD14  2595 0001:0000DD1B  2600 0001:0000DD1C  2601 0001:0000DD23
  2605 0001:0000DD24  2606 0001:0000DD2B  2611 0001:0000DD2C  2612 0001:0000DD33
  2617 0001:0000DD34  2618 0001:0000DD3B  2622 0001:0000DD3C  2623 0001:0000DD43
  2627 0001:0000DD44  2628 0001:0000DD4B  2633 0001:0000DD4C  2634 0001:0000DD53
  2639 0001:0000DD54  2640 0001:0000DD5B  2645 0001:0000DD5C  2646 0001:0000DD5E
  2647 0001:0000DD61  2651 0001:0000DD64  2652 0001:0000DD6B  2658 0001:0000DD6C
  2659 0001:0000DD81  2660 0001:0000DD84  2661 0001:0000DD8B  2662 0001:0000DD98
  2667 0001:0000DDB8  2668 0001:0000DDBB  2669 0001:0000DDC7  2672 0001:0000DDD8
  2673 0001:0000DDDB  2674 0001:0000DDE7  2677 0001:0000DDF8  2678 0001:0000DDFB
  2679 0001:0000DE07  2682 0001:0000DE18  2683 0001:0000DE1B  2684 0001:0000DE27
  2689 0001:0000DE38  2690 0001:0000DE4D  2691 0001:0000DE58  2692 0001:0000DE65
  2693 0001:0000DE6A  2699 0001:0000DE88  2700 0001:0000DEAE  2702 0001:0000DEB7
  2704 0001:0000DEBF  2706 0001:0000DEDB  2707 0001:0000DEE8  2709 0001:0000DEFD
  2710 0001:0000DF02  2713 0001:0000DF51  2704 0001:0000DF54  2714 0001:0000DF59
  2716 0001:0000DF62  2717 0001:0000DF69  2718 0001:0000DF79  2720 0001:0000DF89
  2724 0001:0000DF8E  2725 0001:0000DF9E  2726 0001:0000DFAE  2729 0001:0000DFB3
  2741 0001:0000E020  2742 0001:0000E04B  2744 0001:0000E06C  2745 0001:0000E087
  2747 0001:0000E091  2748 0001:0000E0AB  2749 0001:0000E0AF  2751 0001:0000E0B8
  2753 0001:0000E0BF  2754 0001:0000E0F2  2755 0001:0000E0FE  2756 0001:0000E132
  2759 0001:0000E147  2762 0001:0000E150  2763 0001:0000E157  2765 0001:0000E1A8
  2766 0001:0000E1C5  2767 0001:0000E1CB  2768 0001:0000E1DC  2770 0001:0000E1E4
  2771 0001:0000E1E8  2773 0001:0000E1F0  2776 0001:0000E1F8  2777 0001:0000E200
  2778 0001:0000E207  2782 0001:0000E22C  2783 0001:0000E231  2784 0001:0000E235
  2785 0001:0000E23A  2788 0001:0000E23C  2789 0001:0000E24E  2790 0001:0000E255
  2793 0001:0000E270  2794 0001:0000E280  2795 0001:0000E28C  2796 0001:0000E293
  2798 0001:0000E2AA  2799 0001:0000E2B1  2800 0001:0000E2BD  2803 0001:0000E2CC
  2804 0001:0000E2D7  2805 0001:0000E2E4  2808 0001:0000E2F3  2809 0001:0000E300
  2811 0001:0000E305  2812 0001:0000E312  2814 0001:0000E31E  2815 0001:0000E333
  2817 0001:0000E340  2818 0001:0000E34E  2819 0001:0000E35A  2820 0001:0000E35F
  2822 0001:0000E365  2825 0001:0000E36C  2826 0001:0000E377  2827 0001:0000E384
  2830 0001:0000E393  2831 0001:0000E39A  2832 0001:0000E3A7  2833 0001:0000E3B3
  2834 0001:0000E3C8  2835 0001:0000E3D5  2836 0001:0000E3E3  2837 0001:0000E3EF
  2838 0001:0000E3F4  2840 0001:0000E3FA  2843 0001:0000E400  2844 0001:0000E42A
  2845 0001:0000E437  2848 0001:0000E448  2849 0001:0000E44F  2851 0001:0000E464
  2852 0001:0000E473  2853 0001:0000E478  2856 0001:0000E47E  2859 0001:0000E4A4
  2860 0001:0000E4AF  2861 0001:0000E4BC  2864 0001:0000E4CB  2865 0001:0000E4D2
  2866 0001:0000E4DF  2867 0001:0000E4EB  2868 0001:0000E500  2869 0001:0000E50D
  2870 0001:0000E51B  2871 0001:0000E527  2872 0001:0000E52C  2874 0001:0000E532
  2877 0001:0000E538  2878 0001:0000E53D  2879 0001:0000E54A  2882 0001:0000E554
  2883 0001:0000E559  2884 0001:0000E56E  2885 0001:0000E57C  2886 0001:0000E58A
  2888 0001:0000E596  2891 0001:0000E5A0  2892 0001:0000E5AB  2893 0001:0000E5B8
  2896 0001:0000E5C7  2897 0001:0000E5CE  2898 0001:0000E5DB  2899 0001:0000E5E7
  2900 0001:0000E5FC  2901 0001:0000E609  2902 0001:0000E617  2903 0001:0000E623
  2904 0001:0000E628  2906 0001:0000E62E  2909 0001:0000E634  2910 0001:0000E642
  2911 0001:0000E649  2912 0001:0000E657  2913 0001:0000E664  2916 0001:0000E673
  2918 0001:0000E697  2919 0001:0000E6A4  2920 0001:0000E6B2  2921 0001:0000E6BE
  2922 0001:0000E6C3  2927 0001:0000E6D8  2928 0001:0000E6DD  2931 0001:0000E6E4
  2932 0001:0000E6EF  2934 0001:0000E6FC  2938 0001:0000E70B  2939 0001:0000E712
  2940 0001:0000E727  2941 0001:0000E734  2942 0001:0000E742  2943 0001:0000E74E
  2944 0001:0000E753  2946 0001:0000E759  2949 0001:0000E760  2950 0001:0000E764
  2951 0001:0000E771  2954 0001:0000E77C  2956 0001:0000E792  2959 0001:0000E796
  2960 0001:0000E79D  2962 0001:0000E7A7  2965 0001:0000E7A9  2968 0001:0000E7AC
  2969 0001:0000E7AF  2970 0001:0000E7BC  2973 0001:0000E7C6  2974 0001:0000E7CD
  2976 0001:0000E7D7  2978 0001:0000E7D9  3000 0001:0000E7DC  3001 0001:0000E7E0
  3002 0001:0000E7ED  3005 0001:0000E7F8  3007 0001:0000E80E  3010 0001:0000E812
  3011 0001:0000E819  3013 0001:0000E823  3016 0001:0000E825  3019 0001:0000E828
  3020 0001:0000E82B  3022 0001:0000E838  3026 0001:0000E842  3027 0001:0000E850
  3030 0001:0000E854  3031 0001:0000E85B  3033 0001:0000E865  3036 0001:0000E867
  3039 0001:0000E86C  3040 0001:0000E870  3041 0001:0000E87D  3044 0001:0000E888
  3046 0001:0000E89E  3049 0001:0000E8A2  3050 0001:0000E8A9  3052 0001:0000E8B3
  3055 0001:0000E8B5  3058 0001:0000E8B8  3059 0001:0000E8BB  3060 0001:0000E8C8
  3063 0001:0000E8D2  3064 0001:0000E8E0  3067 0001:0000E8E4  3068 0001:0000E8EB
  3070 0001:0000E8F5  3073 0001:0000E8F7  3076 0001:0000E8FC  3077 0001:0000E8FF
  3078 0001:0000E90C  3081 0001:0000E916  3082 0001:0000E924  3085 0001:0000E928
  3086 0001:0000E92E  3089 0001:0000E954  3092 0001:0000E956  3096 0001:0000E958
  3097 0001:0000E95A  3099 0001:0000E96B  3100 0001:0000E96D  3104 0001:0000E970
  3105 0001:0000E981  3112 0001:0000E984  3113 0001:0000E987  3114 0001:0000E98E
  3115 0001:0000E995  3118 0001:0000E998  3119 0001:0000E99B  3120 0001:0000E9A2
  3121 0001:0000E9A9  3124 0001:0000E9AC  3125 0001:0000E9C3  3126 0001:0000E9CC
  3127 0001:0000E9E2  3128 0001:0000E9EB  3129 0001:0000E9F8  3130 0001:0000EA05
  3131 0001:0000EA14  3137 0001:0000EA38  3138 0001:0000EA44  3139 0001:0000EA50
  3140 0001:0000EA54  3141 0001:0000EA5E  3142 0001:0000EA6C  3144 0001:0000EA77
  3143 0001:0000EA7D  3145 0001:0000EA85  3147 0001:0000EA89  3149 0001:0000EA8F
  3150 0001:0000EA91  3151 0001:0000EA97  3152 0001:0000EA9C  3153 0001:0000EAA4
  3154 0001:0000EAA8  3157 0001:0000EABB  3159 0001:0000EACD  3162 0001:0000EAD4
  3163 0001:0000EADF  3164 0001:0000EAE9  3165 0001:0000EAF4  3166 0001:0000EB00
  3169 0001:0000EB10  3170 0001:0000EB13  3171 0001:0000EB1A  3172 0001:0000EB21
  3173 0001:0000EB2B  3174 0001:0000EB39  3177 0001:0000EB3C  3178 0001:0000EB3F
  3179 0001:0000EB46  3180 0001:0000EB4D  3181 0001:0000EB57  3182 0001:0000EB65
  3186 0001:0000EB68  3187 0001:0000EB75  3190 0001:0000EB78  3191 0001:0000EB7E
  3192 0001:0000EB8B  3195 0001:0000EB90  3196 0001:0000EB96  3197 0001:0000EBA0
  3201 0001:0000EBA4  3202 0001:0000EBB1  3207 0001:0000EBB4  3208 0001:0000EBB7
  3209 0001:0000EBC1  3210 0001:0000EBC7  3212 0001:0000EBCB  3213 0001:0000EBD5
  3210 0001:0000EBDB  3215 0001:0000EBDF  3218 0001:0000EBE4  3219 0001:0000EBED
  3220 0001:0000EBF8  3221 0001:0000EBFE  3222 0001:0000EC14  3223 0001:0000EC1D
  3230 0001:0000EC24  3231 0001:0000EC28  3232 0001:0000EC42  3234 0001:0000EC4E
  3235 0001:0000EC5B  3236 0001:0000EC68  3238 0001:0000EC72  3253 0001:0000EC78
  3254 0001:0000EC80  3256 0001:0000EC8C  3258 0001:0000EC9F  3259 0001:0000ECA9
  3263 0001:0000ECBF  3264 0001:0000ECC9  3267 0001:0000ECDA  3268 0001:0000ECE8
  3269 0001:0000ECEB  3270 0001:0000ECEE  3271 0001:0000ECF7  3272 0001:0000ED00
  3273 0001:0000ED09  3274 0001:0000ED12  3277 0001:0000ED18  3278 0001:0000ED1C
  3280 0001:0000ED28  3281 0001:0000ED3B  3282 0001:0000ED4E  3283 0001:0000ED61
  3285 0001:0000ED74  3292 0001:0000ED78  3293 0001:0000ED80  3295 0001:0000ED8C
  3297 0001:0000ED9F  3298 0001:0000EDAD  3299 0001:0000EDC1  3301 0001:0000EDCD
  3302 0001:0000EDD3  3304 0001:0000EDD7  3305 0001:0000EDDF  3307 0001:0000EDE7
  3308 0001:0000EDE9  3309 0001:0000EDFC  3311 0001:0000EE0B  3312 0001:0000EE19
  3314 0001:0000EE21  3315 0001:0000EE29  3317 0001:0000EE31  3318 0001:0000EE33
  3319 0001:0000EE46  3324 0001:0000EE57  3326 0001:0000EE6A  3328 0001:0000EE70
  3329 0001:0000EE79  3332 0001:0000EE80  3333 0001:0000EE87  3334 0001:0000EE8E
  3337 0001:0000EE95  3341 0001:0000EE9C  3342 0001:0000EEA7  3345 0001:0000EEA8
  3346 0001:0000EEC1  3348 0001:0000EEDB  3349 0001:0000EEE8  3351 0001:0000EEEF
  3354 0001:0000EF14  3355 0001:0000EF2D  3357 0001:0000EF39  3358 0001:0000EF54
  3359 0001:0000EF61  3360 0001:0000EF6A  3362 0001:0000EF73  3365 0001:0000EF98
  3366 0001:0000EF9E  3368 0001:0000EFA8  3369 0001:0000EFAC  3370 0001:0000EFB7
  3371 0001:0000EFBF  3373 0001:0000EFC3  3374 0001:0000EFC9  3376 0001:0000EFCF
  3378 0001:0000EFD9  3381 0001:0000EFDC  3382 0001:0000EFE2  3383 0001:0000EFEB
  3385 0001:0000EFEF  3387 0001:0000EFF8  3388 0001:0000EFFE  3390 0001:0000F009
  3391 0001:0000F017  3393 0001:0000F01E  3395 0001:0000F02E  3399 0001:0000F034
  3400 0001:0000F03F  3403 0001:0000F040  3404 0001:0000F048  3405 0001:0000F058
  3406 0001:0000F066  3407 0001:0000F078  3408 0001:0000F08F  3410 0001:0000F0B3
  3412 0001:0000F0CB  3418 0001:0000F0D0  3419 0001:0000F0D9  3420 0001:0000F0E4
  3421 0001:0000F0ED  3422 0001:0000F0F3  3423 0001:0000F10F  3424 0001:0000F118
  3431 0001:0000F11C  3432 0001:0000F120  3433 0001:0000F13A  3435 0001:0000F146
  3436 0001:0000F153  3437 0001:0000F160  3439 0001:0000F16A  3442 0001:0000F170
  3443 0001:0000F184  3445 0001:0000F190  3446 0001:0000F1A4  3447 0001:0000F1AE
  3449 0001:0000F1CB  3454 0001:0000F1EC  3455 0001:0000F1F4  3457 0001:0000F200
  3459 0001:0000F219  3460 0001:0000F223  3464 0001:0000F239  3466 0001:0000F248
  3467 0001:0000F252  3471 0001:0000F261  3472 0001:0000F26B  3476 0001:0000F27C
  3477 0001:0000F28A  3478 0001:0000F28D  3479 0001:0000F290  3480 0001:0000F299
  3481 0001:0000F2A2  3482 0001:0000F2AB  3483 0001:0000F2B4  3488 0001:0000F2BC
  3489 0001:0000F2CD  3491 0001:0000F2D9  3493 0001:0000F2E4  3494 0001:0000F2EF
  3496 0001:0000F2F7  3497 0001:0000F2FA  3498 0001:0000F309  3500 0001:0000F314
  3502 0001:0000F31F  3503 0001:0000F32A  3505 0001:0000F332  3506 0001:0000F335
  3507 0001:0000F344  3510 0001:0000F34F  3516 0001:0000F358  3517 0001:0000F35F
  3519 0001:0000F36B  3520 0001:0000F379  3521 0001:0000F38D  3523 0001:0000F395
  3524 0001:0000F39B  3525 0001:0000F3A9  3529 0001:0000F3BB  3530 0001:0000F3CE
  3533 0001:0000F3E1  3536 0001:0000F3E8  3537 0001:0000F3EC  3539 0001:0000F3F8
  3540 0001:0000F40B  3541 0001:0000F41E  3542 0001:0000F431  3544 0001:0000F444
  3551 0001:0000F448  3552 0001:0000F450  3554 0001:0000F45C  3556 0001:0000F46B
  3557 0001:0000F479  3558 0001:0000F48D  3560 0001:0000F495  3561 0001:0000F497
  3562 0001:0000F49D  3563 0001:0000F4AB  3566 0001:0000F4BD  3569 0001:0000F4C1
  3570 0001:0000F4C3  3572 0001:0000F4C7  3573 0001:0000F4DA  3576 0001:0000F4ED
  3578 0001:0000F4F4  3579 0001:0000F4FE  3580 0001:0000F505  3581 0001:0000F51B
  3582 0001:0000F522  3583 0001:0000F529  3584 0001:0000F530  3585 0001:0000F537
  3586 0001:0000F53E  3587 0001:0000F554  3588 0001:0000F55B  3591 0001:0000F560
  3592 0001:0000F566  3593 0001:0000F570  3595 0001:0000F57A  3596 0001:0000F57E
  3597 0001:0000F586  3598 0001:0000F58E  3600 0001:0000F592  3601 0001:0000F59E
  3603 0001:0000F5A4  3605 0001:0000F5AE  3623 0001:0000F614  3624 0001:0000F629
  3625 0001:0000F62C  3626 0001:0000F632  3627 0001:0000F636  3629 0001:0000F63D
  3630 0001:0000F64C  3633 0001:0000F66C  3634 0001:0000F677  3635 0001:0000F67E
  3636 0001:0000F683  3637 0001:0000F68F  3645 0001:0000F6A0  3646 0001:0000F6AE
  3647 0001:0000F6B8  3648 0001:0000F6C4  3650 0001:0000F6D1  3651 0001:0000F6DA
  3653 0001:0000F6E7  3654 0001:0000F6F7  3655 0001:0000F701  3657 0001:0000F70B
  3658 0001:0000F71A  3660 0001:0000F729  3666 0001:0000F734  3667 0001:0000F73B
  3668 0001:0000F743  3669 0001:0000F74C  3670 0001:0000F755  3672 0001:0000F759
  3673 0001:0000F762  3674 0001:0000F76B  3676 0001:0000F76F  3677 0001:0000F779
  3679 0001:0000F783  3680 0001:0000F78C  3682 0001:0000F798  3690 0001:0000F79C
  3691 0001:0000F7A3  3692 0001:0000F7A7  3693 0001:0000F7B1  3695 0001:0000F7BF
  3696 0001:0000F7CB  3697 0001:0000F7D4  3699 0001:0000F7D8  3700 0001:0000F7E2
  3702 0001:0000F7EC  3703 0001:0000F7F5  3704 0001:0000F801  3693 0001:0000F802
  3705 0001:0000F805  3706 0001:0000F80D  3710 0001:0000F814  3711 0001:0000F826
  3712 0001:0000F829  3713 0001:0000F840  3714 0001:0000F857  3715 0001:0000F866
  3716 0001:0000F875  3719 0001:0000F890  3720 0001:0000F89B  3721 0001:0000F8A3
  3722 0001:0000F8AB  3723 0001:0000F8B3  3724 0001:0000F8BB  3725 0001:0000F8C7
  3731 0001:0000F8D8  3732 0001:0000F8DF  3733 0001:0000F8EA  3735 0001:0000F8EE
  3736 0001:0000F8FE  3737 0001:0000F90A  3739 0001:0000F914  3740 0001:0000F921
  3744 0001:0000F928  3745 0001:0000F931  3746 0001:0000F935  3748 0001:0000F947
  3749 0001:0000F949  3756 0001:0000F950  3757 0001:0000F958  3759 0001:0000F966
  3760 0001:0000F970  3762 0001:0000F975  3763 0001:0000F977  3765 0001:0000F979
  3757 0001:0000F97A  3766 0001:0000F97D  3767 0001:0000F980  3774 0001:0000F988
  3775 0001:0000F990  3777 0001:0000F99E  3778 0001:0000F9A8  3780 0001:0000F9AD
  3781 0001:0000F9AF  3783 0001:0000F9B1  3775 0001:0000F9B2  3784 0001:0000F9B5
  3785 0001:0000F9B8  3791 0001:0000F9C0  3792 0001:0000F9CA  3794 0001:0000F9E4
  3795 0001:0000F9EF  3796 0001:0000F9F8  3797 0001:0000F9FC  3799 0001:0000FA06
  3807 0001:0000FA0C  3808 0001:0000FA18  3810 0001:0000FA33  3811 0001:0000FA40
  3813 0001:0000FA44  3814 0001:0000FA4E  3815 0001:0000FA51  3818 0001:0000FA5C
  3821 0001:0000FA64  3822 0001:0000FA6A  3823 0001:0000FA6E  3825 0001:0000FA7D
  3826 0001:0000FA7F  3831 0001:0000FAD0  3833 0001:0000FAEE

Line numbers for VA508AccessibilityManager(..\VA\VA508Accessibility\VA508AccessibilityManager.pas) segment .itext

  3828 0002:000001C4  3830 0002:000001D7

Line numbers for VA508AccessibilityPE(VA508AccessibilityPE.pas) segment .text

   103 0001:000105D4   104 0001:000105DC   105 0001:000105DE   107 0001:00010607
   108 0001:00010610   110 0001:00010614   109 0001:00010617   111 0001:0001062C
   113 0001:00010641   115 0001:00010652   117 0001:0001066A   118 0001:00010675
   120 0001:00010677   113 0001:00010678   123 0001:0001067B   129 0001:00010684
   130 0001:0001068B   131 0001:00010696   132 0001:0001069C   133 0001:000106A8
   135 0001:000106B5   137 0001:000106C2   138 0001:000106C6   140 0001:000106C8
   133 0001:000106C9   141 0001:000106CC   149 0001:000106D8   150 0001:000106FA
   151 0001:00010709   152 0001:00010717   153 0001:00010723   154 0001:00010729
   157 0001:00010735   159 0001:00010744   160 0001:0001075F   161 0001:00010768
   157 0001:00010769   164 0001:0001077B   166 0001:0001078B   169 0001:000107B4
   170 0001:000107D4   171 0001:000107ED   176 0001:00010828   177 0001:00010849
   178 0001:00010858   179 0001:0001085C   181 0001:0001086F   182 0001:00010879
   191 0001:000108A8   192 0001:000108AC   193 0001:000108B7   195 0001:000108C0
   196 0001:000108C9   200 0001:000108D4   201 0001:000108DA   202 0001:000108E9
   203 0001:0001090D   204 0001:00010931   205 0001:00010955   207 0001:00010979
   219 0001:000109D4   220 0001:000109F3   222 0001:000109FD   223 0001:00010A01
   224 0001:00010A1D   227 0001:00010A3C   228 0001:00010A52   229 0001:00010A63
   228 0001:00010A8B   234 0001:00010A93   235 0001:00010AA9   236 0001:00010ABA
   235 0001:00010AD7   241 0001:00010ADF   242 0001:00010AF5   243 0001:00010B02
   242 0001:00010B26   248 0001:00010B2B   249 0001:00010B41   250 0001:00010B4E
   249 0001:00010B67   265 0001:00010B6A   266 0001:00010B6E   270 0001:00010BA8
   271 0001:00010BD6   272 0001:00010BE1   273 0001:00010BED   274 0001:00010BF8
   275 0001:00010BFF   281 0001:00010C3C   282 0001:00010C3F   285 0001:00010C61
   286 0001:00010C74   287 0001:00010C78   289 0001:00010C84   292 0001:00010C8D
   293 0001:00010C94   297 0001:00010C9C   299 0001:00010CAC   301 0001:00010CB4
   303 0001:00010CBC   308 0001:00010CC4   311 0001:00010CCB   315 0001:00010CDC
   316 0001:00010CEA   317 0001:00010CF0   320 0001:00010CF6   322 0001:00010CFB
   325 0001:00010CFC   326 0001:00010D02   327 0001:00010D0C   333 0001:00010D10
   334 0001:00010D35   335 0001:00010D3C   336 0001:00010D58   339 0001:00010D73
   340 0001:00010D88   341 0001:00010D90   344 0001:00010DC6   347 0001:00010DDD
   348 0001:00010DF2   349 0001:00010DF7   353 0001:00010E2F   354 0001:00010E44
   357 0001:00010E53   365 0001:00010E9C   366 0001:00010EBE   367 0001:00010ECD
   368 0001:00010EDB   371 0001:00010EF4   372 0001:00010EFF   373 0001:00010F1A
   372 0001:00010F34   378 0001:00010F3C   379 0001:00010F54   381 0001:00010F5C
   383 0001:00010F6A   384 0001:00010F83   385 0001:00010F9C   381 0001:00010F9F
   387 0001:00010FA2   388 0001:00010FAD   390 0001:00010FC8   391 0001:00010FD6
   392 0001:00010FDC   393 0001:00011014   394 0001:0001101D   388 0001:00011020
   399 0001:00011025   400 0001:0001103D   405 0001:00011065   407 0001:00011075
   416 0001:000110C0   417 0001:000110E1   418 0001:000110E6   419 0001:000110EB
   423 0001:000110FD   424 0001:00011108   425 0001:00011115   426 0001:00011126
   429 0001:0001112B   433 0001:00011138   434 0001:00011148   435 0001:00011152
   436 0001:00011162   440 0001:00011179   442 0001:00011188   444 0001:000111A0
   445 0001:000111B4   446 0001:000111CC   447 0001:000111E4   448 0001:000111FC
   451 0001:00011212   440 0001:00011213   452 0001:0001121A   453 0001:00011221
   617 0001:00011248   618 0001:0001124F   625 0001:00011254   626 0001:0001125B
   629 0001:00011260   630 0001:00011263   631 0001:00011269   632 0001:0001127A
   633 0001:0001127D   637 0001:00011280   639 0001:00011283   644 0001:00011288
   645 0001:000112A6   646 0001:000112B2   647 0001:000112B6   648 0001:000112EB
   654 0001:0001131C   655 0001:0001133A   656 0001:00011349   657 0001:00011357
   658 0001:00011366   659 0001:00011378   658 0001:0001138F   661 0001:0001139F
   663 0001:000113AF   666 0001:000113D8   667 0001:000113F1   668 0001:00011405
   676 0001:00011428   677 0001:00011444   679 0001:0001144A   680 0001:0001144E
   681 0001:00011468   682 0001:00011475   681 0001:00011499   684 0001:0001149C
   685 0001:000114A0   689 0001:000114D0   690 0001:000114D7   694 0001:000114DC
   695 0001:000114E1   698 0001:000114E4   699 0001:000114E7   700 0001:000114ED
   701 0001:000114FE   702 0001:00011501   706 0001:00011504   707 0001:0001150A
   708 0001:00011516   711 0001:0001151C   712 0001:0001153B   713 0001:00011544
   714 0001:00011549   715 0001:0001157F   724 0001:000115B0   725 0001:000115D3
   726 0001:000115E2   727 0001:000115F0   728 0001:0001160C   730 0001:00011614
   731 0001:00011622   730 0001:0001163E   733 0001:00011641   734 0001:0001164C
   736 0001:00011663   737 0001:00011671   738 0001:00011677   739 0001:000116AF
   740 0001:000116B8   734 0001:000116BB   742 0001:000116CB   744 0001:000116DB
   748 0001:00011718   749 0001:00011731   750 0001:00011745   756 0001:00011768
   757 0001:0001176F   760 0001:00011774   761 0001:00011777   763 0001:000117A2
   765 0001:000117BD   767 0001:000117D8   769 0001:000117F3   771 0001:0001180E
   773 0001:00011829

Line numbers for VA508AccessibilityPE(VA508AccessibilityPE.pas) segment .itext

   775 0002:000002A8

Line numbers for VA508AccessibilityCompileInfo(VA508AccessibilityCompileInfo.pas) segment .text

    77 0001:00011C44    78 0001:00011C5E    79 0001:00011C63    80 0001:00011C73
    81 0001:00011C9F    82 0001:00011CAE    83 0001:00011CB5    84 0001:00011CC1
    87 0001:00011CE4    88 0001:00011D01    89 0001:00011D0F    90 0001:00011D1C
    92 0001:00011D2E    93 0001:00011D37    95 0001:00011D3E    99 0001:00011D4A
   103 0001:00011D6C   104 0001:00011D75   105 0001:00011D7F   109 0001:00011D80
   111 0001:00011DAE   113 0001:00011DB7   114 0001:00011DE6   117 0001:00011DEB
   119 0001:00011DF8   120 0001:00011E0B   121 0001:00011E28   122 0001:00011E45
   123 0001:00011E63   124 0001:00011E81   125 0001:00011E9F   127 0001:00011EC8
   128 0001:00011ED4   131 0001:00011EE0   134 0001:00011F14   135 0001:00011F17
   136 0001:00011F24   137 0001:00011F2E   138 0001:00011F3A   139 0001:00011F41
   142 0001:00011F44   143 0001:00011F47   144 0001:00011F66   145 0001:00011F86
   150 0001:00011F88   151 0001:00011FAA   152 0001:00011FB4

Line numbers for VA508AccessibilityCompileInfo(VA508AccessibilityCompileInfo.pas) segment .itext

   147 0002:000002B0   149 0002:000002C8

Line numbers for VA508AccessibilityCompiler(VA508AccessibilityCompiler.pas) segment .text

    96 0001:00012188    98 0001:0001219B    99 0001:000121B0   100 0001:000121BB
   102 0001:000121CD   103 0001:000121EF   104 0001:000121F9   107 0001:00012203
   112 0001:00012234   113 0001:00012247   115 0001:00012259   116 0001:0001226E
   118 0001:00012274   119 0001:00012282   120 0001:0001228C   122 0001:00012293
   124 0001:0001229D   127 0001:000122D0   128 0001:000122D3   129 0001:000122DB
   130 0001:000122DF   131 0001:000122E4   137 0001:000122E8   138 0001:000122FF
   139 0001:00012309   144 0001:0001231C   145 0001:0001231F   146 0001:00012322
   148 0001:0001232B   149 0001:00012337   152 0001:00012348   153 0001:00012372
   154 0001:00012376   155 0001:000123B3   158 0001:000123E4   159 0001:0001240C
   160 0001:00012413   162 0001:0001241F   164 0001:0001242C   166 0001:00012444
   167 0001:00012455   171 0001:000124B2   172 0001:000124C3   175 0001:000124D7
   177 0001:000124DF   178 0001:000124E8   182 0001:000124F1   183 0001:000124FD
   186 0001:000126F0   187 0001:000126FF   189 0001:0001270C   191 0001:00012713
   196 0001:0001271C   201 0001:00012720   205 0001:00012724   206 0001:00012728
   207 0001:0001272D   211 0001:00012730   212 0001:00012733   213 0001:00012739
   214 0001:0001273E   218 0001:00012744   219 0001:00012755   222 0001:00012758
   223 0001:0001276B   224 0001:0001277C   225 0001:00012785   226 0001:0001278C
   229 0001:000127A8   230 0001:000127B3   231 0001:000127BB   232 0001:000127C7
   236 0001:000127D8   237 0001:000127DC   240 0001:000127E0   241 0001:000127E4
   242 0001:000127EE   243 0001:000127F5   245 0001:000127FE   246 0001:0001280D
   247 0001:00012812   248 0001:00012817   249 0001:0001281C   250 0001:00012821
   251 0001:00012825   252 0001:00012829   253 0001:0001282D   254 0001:00012832
   267 0001:00012838   268 0001:0001286F   270 0001:0001288F   271 0001:00012891
   272 0001:000128A0   273 0001:000128AD   275 0001:000128B1   276 0001:000128C5
   277 0001:000128D6   282 0001:000128FF   283 0001:00012901   285 0001:0001294C
   286 0001:0001296A   287 0001:00012979   289 0001:00012990   290 0001:0001299C
   291 0001:000129A8   293 0001:000129C3   294 0001:000129D1   297 0001:00012A1F
   298 0001:00012A3C   291 0001:00012A3F   300 0001:00012A42   301 0001:00012A48
   302 0001:00012A50   305 0001:00012ABC   306 0001:00012AE3   307 0001:00012AE9
   308 0001:00012B13   311 0001:00012B3C   312 0001:00012B6F   313 0001:00012B76
   314 0001:00012B9D   315 0001:00012BA0   316 0001:00012BA4   317 0001:00012BAE
   320 0001:00012BF0   321 0001:00012C23   322 0001:00012C2A   323 0001:00012C51
   324 0001:00012C54   325 0001:00012C58   326 0001:00012C62   329 0001:00012CA4
   330 0001:00012CC5   331 0001:00012CCC   332 0001:00012CD6   339 0001:00012CF8
   340 0001:00012D03   342 0001:00012D0A   343 0001:00012D14   346 0001:00012D20
   347 0001:00012D2A   348 0001:00012D2E   352 0001:00012D38   355 0001:00012D40
   356 0001:00012D73   357 0001:00012D7A   358 0001:00012DA6   359 0001:00012DB0
   449 0001:00012E00   450 0001:00012E09   451 0001:00012E0B   452 0001:00012E1D
   455 0001:00012E20   456 0001:00012E32   457 0001:00012E41   453 0001:00012E44
   459 0001:00012E53   464 0001:00012E58   465 0001:00012E5D   466 0001:00012E65
   467 0001:00012E6B   468 0001:00012E83   469 0001:00012E98   470 0001:00012E9F
   473 0001:00012EA4   474 0001:00012EC2   476 0001:00012ECB   477 0001:00012EDF
   478 0001:00012EE5   480 0001:00012EF6   483 0001:00012F18   484 0001:00012F3F
   485 0001:00012F6C   490 0001:00012FA4   491 0001:00012FC9   492 0001:00012FD4
   493 0001:00012FDB   494 0001:00012FFB   496 0001:00012FFF   497 0001:0001301F
   499 0001:0001302A   501 0001:0001302E   502 0001:0001303D   503 0001:00013041
   505 0001:0001306E   509 0001:000130C8   510 0001:000130E9   511 0001:00013106
   512 0001:00013125   513 0001:0001312E   514 0001:0001313C   519 0001:00013168
   520 0001:00013191   521 0001:00013198   522 0001:000131A7   524 0001:000131AC
   525 0001:000131AD   527 0001:000131B1   526 0001:000131B2   528 0001:000131C0
   530 0001:000131DD   535 0001:00013214   536 0001:00013232   537 0001:00013242
   539 0001:00013246   540 0001:00013258   542 0001:00013265   547 0001:00013288
   548 0001:000132A7   549 0001:000132A9   550 0001:000132B9   551 0001:000132BD
   552 0001:000132CC   561 0001:000132F0   562 0001:00013316   563 0001:00013329
   564 0001:00013330   565 0001:00013333   566 0001:00013335   567 0001:00013339
   568 0001:0001333D   569 0001:00013345   570 0001:00013349   573 0001:00013350
   574 0001:0001336B   576 0001:00013373   577 0001:00013380   579 0001:0001338A
   581 0001:00013394   583 0001:000133B3   584 0001:000133B7   586 0001:000133CE
   588 0001:000133ED   589 0001:000133F1   592 0001:00013408   593 0001:00013427
   595 0001:00013448   596 0001:00013458   598 0001:0001345C   600 0001:00013475
   602 0001:0001347B   603 0001:0001348A   605 0001:0001349E   610 0001:000134AE
   612 0001:000134C1   613 0001:000134C5   614 0001:000134CD   620 0001:000134D6
   622 0001:000134E5   623 0001:000134E9   626 0001:000134F2   635 0001:00013505
   636 0001:00013514   640 0001:00013518   642 0001:00013529   644 0001:0001353C
   645 0001:00013549   646 0001:00013572   647 0001:0001357F   648 0001:00013584
   649 0001:0001358C   652 0001:0001358E   571 0001:0001358F   654 0001:000135A2
   662 0001:0001363C   663 0001:0001365E   665 0001:0001367D   666 0001:0001368E
   667 0001:0001369F   669 0001:000136B1   670 0001:000136EC   667 0001:000136ED
   671 0001:000136F0   663 0001:000136F3   672 0001:000136F8   680 0001:00013754
   681 0001:0001379F   682 0001:000137AD   684 0001:000137C8   685 0001:0001380E
   686 0001:00013822   688 0001:0001382B   689 0001:00013834   690 0001:00013845
   691 0001:0001384D   692 0001:00013854   693 0001:0001386E   694 0001:00013882
   698 0001:0001388E   699 0001:000138A5   700 0001:000138BD   701 0001:000138EA
   702 0001:000138F3   705 0001:000138FE   706 0001:00013907   707 0001:0001391C
   708 0001:00013926   707 0001:00013937   709 0001:0001393A   712 0001:00013946
   715 0001:00013961   717 0001:00013974   722 0001:000139C8   723 0001:000139F7
   724 0001:000139FB   725 0001:00013A09   727 0001:00013A19   728 0001:00013A26
   729 0001:00013A2D   731 0001:00013A36   732 0001:00013A54   733 0001:00013A5D
   734 0001:00013A6B   735 0001:00013A6F   736 0001:00013A85   735 0001:00013AA9
   740 0001:00013AAE   741 0001:00013AB8   742 0001:00013AC5   744 0001:00013ACB
   745 0001:00013ADB   746 0001:00013AF7   751 0001:00013B14   752 0001:00013B19
   755 0001:00013B50   756 0001:00013B68   757 0001:00013B6A   759 0001:00013B73
   761 0001:00013B82   762 0001:00013B9E   764 0001:00013BCB   768 0001:00013BEE
   775 0001:00013C28   776 0001:00013C44   777 0001:00013C4F   778 0001:00013C57
   779 0001:00013C5B   780 0001:00013C5F   781 0001:00013C63   782 0001:00013C6A
   783 0001:00013C7D   785 0001:00013C87   786 0001:00013C97   788 0001:00013CC4
   789 0001:00013CCA   790 0001:00013CD4   792 0001:00013CDA   793 0001:00013CEA
   797 0001:00013D20   798 0001:00013D36   803 0001:00013DCC   804 0001:00013DE6
   806 0001:00013E05   807 0001:00013E11   808 0001:00013E30   809 0001:00013E3E
   810 0001:00013E4C   812 0001:00013E63   814 0001:00013E76   804 0001:00013E79
   815 0001:00013E7E   818 0001:00013EA0   819 0001:00013EB5   821 0001:00013ECD
   822 0001:00013EE9   824 0001:00013EF2   827 0001:00013F0E   830 0001:00013F38
   831 0001:00013F3E   832 0001:00013F49   833 0001:00013F57   835 0001:00013F6C
   836 0001:00013F7A   838 0001:00013F96   841 0001:00013FA8   843 0001:00013FBB
   852 0001:00013FC0   853 0001:00013FFC   854 0001:0001400C   855 0001:0001401E
   856 0001:0001402E   857 0001:00014053   859 0001:0001405C   860 0001:00014069
   863 0001:0001406E   864 0001:00014078   865 0001:00014086   867 0001:00014098
   868 0001:000140A3   869 0001:000140B2   870 0001:000140B9   871 0001:000140BF
   874 0001:00014105   878 0001:00014156   880 0001:00014168   882 0001:0001417E
   883 0001:0001418C   884 0001:0001419A   885 0001:000141A9   886 0001:000141B7
   887 0001:000141C2   889 0001:00014202   890 0001:00014235   891 0001:00014242
   892 0001:0001424D   893 0001:00014254   896 0001:00014295   899 0001:000142C0
   900 0001:000142C2   903 0001:000142E1   907 0001:000144B0   908 0001:000144CE
   909 0001:000144DB   925 0001:00014500   926 0001:00014521   928 0001:00014540
   929 0001:00014550   930 0001:00014561   931 0001:00014571   933 0001:0001457A
   934 0001:00014582   935 0001:00014590   934 0001:000145BF   936 0001:000145C2
   939 0001:000145D5   940 0001:000145D7   941 0001:000145F7   943 0001:00014601
   944 0001:0001460F   946 0001:0001461C   947 0001:00014629   948 0001:00014635
   949 0001:00014644   950 0001:00014652   951 0001:0001465A   952 0001:00014664
   953 0001:00014678   954 0001:00014683   955 0001:00014695   954 0001:000146B0
   957 0001:000146C0   961 0001:000146DD   964 0001:000146ED   965 0001:00014701
   966 0001:00014712   967 0001:00014726   926 0001:00014729   968 0001:00014732
   970 0001:00014751   971 0001:00014761   972 0001:00014771   974 0001:0001477D
   975 0001:0001478E   976 0001:0001479F   977 0001:000147AF   978 0001:000147BD
   979 0001:000147C5   981 0001:000147D6   982 0001:000147DE   983 0001:000147E2
   984 0001:000147ED   985 0001:000147F1   988 0001:00014803   990 0001:00014830
   992 0001:00014862   996 0001:00014874   997 0001:0001487F   998 0001:00014885
  1000 0001:00014896   968 0001:00014899  1001 0001:000148A2  1006 0001:000149FC
  1007 0001:00014A18  1009 0001:00014A3A  1011 0001:00014A64  1012 0001:00014A9A
  1014 0001:00014AA7  1015 0001:00014AB5  1016 0001:00014AD1  1018 0001:00014ADA
  1019 0001:00014AE8  1020 0001:00014AF6  1022 0001:00014B12  1024 0001:00014B24
  1028 0001:00014B44  1032 0001:00014B57  1007 0001:00014B5A  1033 0001:00014B63
  1040 0001:00014BA0  1041 0001:00014BC7  1042 0001:00014BD5  1043 0001:00014BFD
  1044 0001:00014C02  1045 0001:00014C17  1046 0001:00014C2B  1047 0001:00014C40
  1048 0001:00014C7F  1049 0001:00014C91  1050 0001:00014CA3  1052 0001:00014CB2
  1053 0001:00014CBF  1054 0001:00014CD1  1055 0001:00014CE7  1058 0001:00014CF7
  1059 0001:00014D03  1061 0001:00014D0E  1062 0001:00014D2E  1063 0001:00014D4E
  1065 0001:00014D56  1066 0001:00014D61  1067 0001:00014D6C  1069 0001:00014D71
  1070 0001:00014D91  1071 0001:00014DB4  1072 0001:00014DC1  1073 0001:00014DCE
  1074 0001:00014DDB  1059 0001:00014DE8  1076 0001:00014DF1  1079 0001:00014DFE
  1080 0001:00014E05  1088 0001:00014E84  1089 0001:00014EA1  1091 0001:00014EAE
  1092 0001:00014ECE  1093 0001:00014EDE  1094 0001:00014EEC  1095 0001:00014EFE
  1096 0001:00014F00  1097 0001:00014F02  1098 0001:00014F14  1100 0001:00014F21
  1101 0001:00014F31  1102 0001:00014F51  1103 0001:00014F52  1104 0001:00014F53
  1105 0001:00014F63  1106 0001:00014F83  1107 0001:00014F84  1108 0001:00014F85
  1109 0001:00014FA0  1110 0001:00014FA1  1111 0001:00014FBC  1098 0001:00014FBD
  1113 0001:00014FC6  1115 0001:00014FD7  1116 0001:00014FE2  1117 0001:00014FED
  1123 0001:0001502C  1124 0001:00015052  1125 0001:00015059  1126 0001:00015061
  1127 0001:00015069  1128 0001:0001508A  1130 0001:000150BF  1131 0001:000150CA
  1132 0001:000150D5  1133 0001:000150E0  1135 0001:000150E5  1136 0001:00015113
  1138 0001:00015140  1139 0001:00015152  1140 0001:00015164  1141 0001:00015176
  1143 0001:0001518A  1144 0001:0001519E  1145 0001:000151B2  1146 0001:000151C8
  1148 0001:000151D2  1149 0001:000151D8  1133 0001:000151D9  1150 0001:000151E2
  1155 0001:0001522C  1156 0001:00015233  1158 0001:00015245  1159 0001:00015253
  1160 0001:00015282  1161 0001:0001528E  1162 0001:0001529A  1163 0001:000152A7
  1165 0001:000152B4  1166 0001:000152BF  1167 0001:000152CA  1168 0001:000152D5
  1170 0001:000152E2  1173 0001:000152F6  1174 0001:000152FB  1156 0001:000152FE
  1175 0001:00015308  1180 0001:00015310  1181 0001:0001531C  1182 0001:0001532D
  1181 0001:0001533C  1183 0001:0001533F  1184 0001:00015346  1185 0001:00015351
  1186 0001:00015358  1187 0001:0001535E  1189 0001:00015364  1190 0001:0001539B
  1191 0001:000153A9  1194 0001:000153B2  1195 0001:000153B9  1196 0001:000153C0
  1197 0001:000153CC  1192 0001:000153D3  1199 0001:000153DF  1200 0001:000153EB
  1203 0001:000153FF  1205 0001:0001540E  1209 0001:0001545C  1211 0001:0001547A

Line numbers for VA508AccessibilityCompiler(VA508AccessibilityCompiler.pas) segment .itext

  1206 0002:000002E0  1208 0002:000002F8

Line numbers for VA508ImageListLabelerPE(VA508ImageListLabelerPE.pas) segment .text

    86 0001:00015C0C    87 0001:00015C27    88 0001:00015C42    89 0001:00015C5D
    90 0001:00015C78    91 0001:00015C88   103 0001:00015CDC   104 0001:00015CF2
   106 0001:00015CFB   107 0001:00015D11   108 0001:00015D21   115 0001:00015D40
   116 0001:00015D44   117 0001:00015D4D   118 0001:00015D57   120 0001:00015D60
   121 0001:00015D70   125 0001:00015D80   126 0001:00015D85   129 0001:00015D88
   130 0001:00015D93   132 0001:00015D9C   133 0001:00015DB4   135 0001:00015DBB
   136 0001:00015DC7   140 0001:00015DD8   141 0001:00015DDF   147 0001:00015DE0
   148 0001:00015DE6   149 0001:00015DED   150 0001:00015E0F   151 0001:00015E25
   160 0001:00015E2C   161 0001:00015E37   163 0001:00015E42   164 0001:00015E56
   165 0001:00015E64   167 0001:00015E83   168 0001:00015E9B   169 0001:00015EAB
   170 0001:00015EAF   171 0001:00015EB9   165 0001:00015EBA   173 0001:00015ECC
   176 0001:00015EE8   180 0001:00015EF0   181 0001:00015F07   182 0001:00015F0E
   183 0001:00015F15   184 0001:00015F1C   186 0001:00015F1E   192 0001:00015F20
   193 0001:00015F21   194 0001:00015F2A   196 0001:00015F2E   197 0001:00015F31
   198 0001:00015F38   201 0001:00015F3C   202 0001:00015F3E   203 0001:00015F46
   204 0001:00015F4C   211 0001:00015F50   212 0001:00015F59   214 0001:00015F69
   215 0001:00015F73   216 0001:00015F87   217 0001:00015F95   219 0001:00015FA1
   220 0001:00015FBF   221 0001:00015FD5   224 0001:00015FDF   225 0001:00015FE8
   227 0001:00015FF5   228 0001:00015FFD   229 0001:0001600B   230 0001:0001601A
   231 0001:0001601F   233 0001:0001602E   235 0001:0001603B   236 0001:00016046
   238 0001:0001606D   239 0001:00016077   240 0001:00016086   239 0001:00016090
   241 0001:00016094   242 0001:000160A4   244 0001:000160B4   245 0001:000160C9
   246 0001:000160DE   247 0001:000160EC   248 0001:000160FD   249 0001:0001610E
   250 0001:00016119   251 0001:00016124   252 0001:0001613B   254 0001:00016152
   256 0001:00016170   257 0001:0001617D   260 0001:0001619F   263 0001:000161BB
   272 0001:000161C0   273 0001:000161D0   274 0001:000161D9   276 0001:000161EF
   277 0001:000161F8   279 0001:0001620E   281 0001:00016212   282 0001:00016226
   285 0001:00016244   287 0001:00016258   288 0001:00016267   289 0001:0001627B
   290 0001:00016291   291 0001:00016295   294 0001:000162AD   295 0001:000162B9
   300 0001:000162C0   301 0001:000162D7   303 0001:00016305   307 0001:0001633C
   308 0001:00016346   309 0001:0001634B   312 0001:0001634C   313 0001:00016355
   314 0001:00016359   316 0001:00016367   317 0001:00016372   321 0001:0001639C
   322 0001:000163A1   332 0001:000163A4   333 0001:000163CC   334 0001:000163DD
   336 0001:000163E3   338 0001:000163EE   339 0001:000163FC   340 0001:00016443
   336 0001:00016446   342 0001:00016449   348 0001:0001648C   349 0001:000164AE
   350 0001:000164B7   351 0001:000164C3   352 0001:000164C7   353 0001:000164FD
   356 0001:00016538   357 0001:0001653E   358 0001:0001654A   359 0001:00016566
   365 0001:0001656C   366 0001:00016585   367 0001:0001658F   368 0001:0001659C
   369 0001:000165A0   370 0001:000165AE   371 0001:000165B8   379 0001:000165E8
   380 0001:000165EC   381 0001:000165F5   382 0001:000165FF   384 0001:0001660A
   385 0001:00016611   391 0001:0001661C   392 0001:00016622   393 0001:00016632
   394 0001:0001663A   397 0001:0001664C   398 0001:00016652   399 0001:0001665E
   400 0001:0001667A

Line numbers for VA508ImageListLabelerPE(VA508ImageListLabelerPE.pas) segment .itext

   402 0002:00000310

Line numbers for .VA508Access2006(C:\CPRSDev\cprs\main\VA\VA508Accessibility\VA508Access2006.dpk) segment .itext

    58 0002:00000318

Bound resource files

VA508AccessibilityCompileInfo.dfm
VA508ImageListLabelerPE.dfm
VA508Access2006.res
VA508AccessibilityManager.dcr
VA508ImageListLabeler.dcr
VA508Access2006.drf


Program entry point at 0002:00000318
